Archive member included to satisfy reference by file (symbol)

/usr/lib/gcc-cross/arm-linux-gnueabihf/5/libgcc.a(_udivsi3.o)
                              arch/arm/cpu/armv7/built-in.o (__aeabi_uidiv)
/usr/lib/gcc-cross/arm-linux-gnueabihf/5/libgcc.a(_divsi3.o)
                              common/built-in.o (__aeabi_idiv)
/usr/lib/gcc-cross/arm-linux-gnueabihf/5/libgcc.a(_lshrdi3.o)
                              fs/built-in.o (__aeabi_llsr)
/usr/lib/gcc-cross/arm-linux-gnueabihf/5/libgcc.a(_ashldi3.o)
                              drivers/mmc/built-in.o (__aeabi_llsl)
/usr/lib/gcc-cross/arm-linux-gnueabihf/5/libgcc.a(_dvmd_lnx.o)
                              /usr/lib/gcc-cross/arm-linux-gnueabihf/5/libgcc.a(_udivsi3.o) (__aeabi_idiv0)

Discarded input sections

 .data          0x0000000000000000        0x0 arch/arm/cpu/armv7/start.o
 .bss           0x0000000000000000        0x0 arch/arm/cpu/armv7/start.o
 .text.v7_outer_cache_flush_all
                0x0000000000000000        0x2 arch/arm/cpu/armv7/built-in.o
 .text.v7_outer_cache_inval_all
                0x0000000000000000        0x2 arch/arm/cpu/armv7/built-in.o
 .text.v7_outer_cache_flush_range
                0x0000000000000000        0x2 arch/arm/cpu/armv7/built-in.o
 .text.v7_outer_cache_inval_range
                0x0000000000000000        0x2 arch/arm/cpu/armv7/built-in.o
 .text.v7_arch_cp15_set_l2aux_ctrl
                0x0000000000000000        0x6 arch/arm/cpu/armv7/built-in.o
 .text.v7_arch_cp15_set_acr
                0x0000000000000000        0x6 arch/arm/cpu/armv7/built-in.o
 .text.sdelay   0x0000000000000000        0x6 arch/arm/cpu/armv7/built-in.o
 .text.wait_on_value
                0x0000000000000000       0x1a arch/arm/cpu/armv7/built-in.o
 .text.get_board_rev
                0x0000000000000000       0x26 arch/arm/cpu/armv7/built-in.o
 .text.vadc_power_up
                0x0000000000000000       0x4c arch/arm/cpu/armv7/built-in.o
 .text.vadc_power_down
                0x0000000000000000       0x28 arch/arm/cpu/armv7/built-in.o
 .text.pcie_power_up
                0x0000000000000000        0xa arch/arm/cpu/armv7/built-in.o
 .text.pcie_power_off
                0x0000000000000000        0x8 arch/arm/cpu/armv7/built-in.o
 .text.arch_auxiliary_core_up
                0x0000000000000000       0x2c arch/arm/cpu/armv7/built-in.o
 .text.arch_auxiliary_core_check_up
                0x0000000000000000       0x14 arch/arm/cpu/armv7/built-in.o
 .text.get_boot_device
                0x0000000000000000       0x4c arch/arm/cpu/armv7/built-in.o
 .text.check_1_2G
                0x0000000000000000       0x40 arch/arm/cpu/armv7/built-in.o
 .text.set_arm_freq_400M
                0x0000000000000000       0x18 arch/arm/cpu/armv7/built-in.o
 .text.enable_pll_video.constprop.2
                0x0000000000000000       0x90 arch/arm/cpu/armv7/built-in.o
 .text.enable_uart_clk
                0x0000000000000000       0x1c arch/arm/cpu/armv7/built-in.o
 .text.enable_usdhc_clk
                0x0000000000000000       0x38 arch/arm/cpu/armv7/built-in.o
 .text.enable_spi_clk
                0x0000000000000000       0x2c arch/arm/cpu/armv7/built-in.o
 .text.enable_lvds
                0x0000000000000000       0x74 arch/arm/cpu/armv7/built-in.o
 .text.enable_lcdif_clock
                0x0000000000000000       0x40 arch/arm/cpu/armv7/built-in.o
 .text.mxs_set_lcdclk
                0x0000000000000000      0x140 arch/arm/cpu/armv7/built-in.o
 .text.mxs_set_vadcclk
                0x0000000000000000       0x18 arch/arm/cpu/armv7/built-in.o
 .text.enable_pcie_clock
                0x0000000000000000       0x94 arch/arm/cpu/armv7/built-in.o
 .rodata.soc_boot_modes
                0x0000000000000000       0x60 arch/arm/cpu/armv7/built-in.o
 .data          0x0000000000000000        0x0 arch/arm/cpu/armv7/built-in.o
 .bss           0x0000000000000000        0x0 arch/arm/cpu/armv7/built-in.o
 .text          0x0000000000000000        0x0 arch/arm/imx-common/built-in.o
 .text.imx_iomux_set_gpr_register
                0x0000000000000000       0x2c arch/arm/imx-common/built-in.o
 .text.get_imx_reset_cause
                0x0000000000000000        0xc arch/arm/imx-common/built-in.o
 .text.imx_ddr_size
                0x0000000000000000       0x4c arch/arm/imx-common/built-in.o
 .text.set_chipselect_size
                0x0000000000000000       0x5c arch/arm/imx-common/built-in.o
 .text.mxs_wait_mask_set
                0x0000000000000000       0x24 arch/arm/imx-common/built-in.o
 .text.mxs_wait_mask_clr
                0x0000000000000000       0x22 arch/arm/imx-common/built-in.o
 .text.mxs_reset_block
                0x0000000000000000       0x58 arch/arm/imx-common/built-in.o
 .text.usec2ticks
                0x0000000000000000       0x4c arch/arm/imx-common/built-in.o
 .text.create_usage
                0x0000000000000000       0x68 arch/arm/imx-common/built-in.o
 .text.add_board_boot_modes
                0x0000000000000000       0x3c arch/arm/imx-common/built-in.o
 .rodata.col_lookup
                0x0000000000000000        0x8 arch/arm/imx-common/built-in.o
 .rodata.bank_lookup
                0x0000000000000000        0x2 arch/arm/imx-common/built-in.o
 .data          0x0000000000000000        0x0 arch/arm/imx-common/built-in.o
 .bss           0x0000000000000000        0x0 arch/arm/imx-common/built-in.o
 .text.reset_misc
                0x0000000000000000        0x2 arch/arm/lib/built-in.o
 .text.flush_cache
                0x0000000000000000        0x2 arch/arm/lib/built-in.o
 .text.flush_dcache_all
                0x0000000000000000        0xa arch/arm/lib/built-in.o
 .text.enable_caches
                0x0000000000000000        0xc arch/arm/lib/built-in.o
 .text.arm_init_before_mmu
                0x0000000000000000        0x2 arch/arm/lib/built-in.o
 .text.mmu_page_table_flush
                0x0000000000000000        0x2 arch/arm/lib/built-in.o
 .rodata.pl310  0x0000000000000000        0x4 arch/arm/lib/built-in.o
 .data          0x0000000000000000        0x0 arch/arm/lib/built-in.o
 .__secure_start
                0x0000000000000000        0x0 arch/arm/lib/built-in.o
 .__secure_end  0x0000000000000000        0x0 arch/arm/lib/built-in.o
 .bss           0x0000000000000000        0x0 arch/arm/lib/built-in.o
 .text          0x0000000000000000        0x0 board/udoo/udoo_neo/built-in.o
 .text.mmc_map_to_kernel_blk
                0x0000000000000000        0x4 board/udoo/udoo_neo/built-in.o
 .data          0x0000000000000000        0x0 board/udoo/udoo_neo/built-in.o
 .bss           0x0000000000000000        0x0 board/udoo/udoo_neo/built-in.o
 .text          0x0000000000000000        0x0 common/built-in.o
 .text.hash_finish_crc32
                0x0000000000000000       0x1c common/built-in.o
 .text.hash_update_crc32
                0x0000000000000000       0x14 common/built-in.o
 .text.hash_init_crc32
                0x0000000000000000       0x14 common/built-in.o
 .text.hash_lookup_algo
                0x0000000000000000       0x1c common/built-in.o
 .text.hash_progressive_lookup_algo
                0x0000000000000000       0x20 common/built-in.o
 .text.hash_show
                0x0000000000000000       0x38 common/built-in.o
 .text.hash_block
                0x0000000000000000       0x38 common/built-in.o
 .text.unset_local_var
                0x0000000000000000       0x60 common/built-in.o
 .text.arch_cpu_init
                0x0000000000000000        0x4 common/built-in.o
 .text.red_led_off
                0x0000000000000000        0x2 common/built-in.o
 .text.green_led_on
                0x0000000000000000        0x2 common/built-in.o
 .text.green_led_off
                0x0000000000000000        0x2 common/built-in.o
 .text.yellow_led_on
                0x0000000000000000        0x2 common/built-in.o
 .text.yellow_led_off
                0x0000000000000000        0x2 common/built-in.o
 .text.blue_led_on
                0x0000000000000000        0x2 common/built-in.o
 .text.blue_led_off
                0x0000000000000000        0x2 common/built-in.o
 .text.arch_reserve_stacks
                0x0000000000000000        0x4 common/built-in.o
 .text.board_init_f_mem
                0x0000000000000000       0x22 common/built-in.o
 .text.power_init_board
                0x0000000000000000        0x4 common/built-in.o
 .text.board_flash_wp_on
                0x0000000000000000        0x4 common/built-in.o
 .text.fixup_cpu
                0x0000000000000000        0x4 common/built-in.o
 .text.checkboard
                0x0000000000000000       0x10 common/built-in.o
 .text.bootz_setup
                0x0000000000000000       0x14 common/built-in.o
 .text.arch_preboot_os
                0x0000000000000000        0x2 common/built-in.o
 .text.env_flags_parse_varaccess_from_binflags
                0x0000000000000000       0x18 common/built-in.o
 .text.mmc_get_env_devno
                0x0000000000000000        0x4 common/built-in.o
 .text.invalidate_icache_all
                0x0000000000000000        0xc common/built-in.o
 .text.flush_dcache_all
                0x0000000000000000        0xc common/built-in.o
 .text.of_bus_default_map
                0x0000000000000000       0xa8 common/built-in.o
 .text.fdt_read_prop
                0x0000000000000000       0x3c common/built-in.o
 .text.of_bus_default_count_cells
                0x0000000000000000       0x34 common/built-in.o
 .text.of_bus_default_translate
                0x0000000000000000       0x7c common/built-in.o
 .text.fdt_getprop_u32_default_node
                0x0000000000000000       0x24 common/built-in.o
 .text.fdt_getprop_u32_default
                0x0000000000000000       0x24 common/built-in.o
 .text.do_fixup_by_path_u32
                0x0000000000000000       0x1a common/built-in.o
 .text.do_fixup_by_prop
                0x0000000000000000       0x5e common/built-in.o
 .text.do_fixup_by_prop_u32
                0x0000000000000000       0x24 common/built-in.o
 .text.do_fixup_by_compat
                0x0000000000000000       0x50 common/built-in.o
 .text.do_fixup_by_compat_u32
                0x0000000000000000       0x1a common/built-in.o
 .text.fdt_increase_size
                0x0000000000000000        0xc common/built-in.o
 .text.fdt_del_node_and_alias
                0x0000000000000000       0x30 common/built-in.o
 .text.fdt_translate_address
                0x0000000000000000      0x194 common/built-in.o
 .text.fdt_node_offset_by_compat_reg
                0x0000000000000000       0x5c common/built-in.o
 .text.fdt_alloc_phandle
                0x0000000000000000       0x36 common/built-in.o
 .text.fdt_set_phandle
                0x0000000000000000       0x40 common/built-in.o
 .text.fdt_create_phandle
                0x0000000000000000       0x40 common/built-in.o
 .text.fdt_set_node_status
                0x0000000000000000       0x90 common/built-in.o
 .text.fdt_set_status_by_alias
                0x0000000000000000       0x1c common/built-in.o
 .text.fdt_verify_alias_address
                0x0000000000000000       0x8c common/built-in.o
 .text.fdt_get_base_address
                0x0000000000000000       0x34 common/built-in.o
 .text.fdt_read_range
                0x0000000000000000       0xd0 common/built-in.o
 .text.fdt_setup_simplefb_node
                0x0000000000000000      0x15c common/built-in.o
 .text.legacy_miiphy_read
                0x0000000000000000       0x22 common/built-in.o
 .text.legacy_miiphy_write
                0x0000000000000000       0x16 common/built-in.o
 .text.miiphy_register
                0x0000000000000000       0xb4 common/built-in.o
 .text.usb_submit_int_msg
                0x0000000000000000        0x4 common/built-in.o
 .text.usb_set_protocol
                0x0000000000000000       0x2e common/built-in.o
 .text.usb_set_idle
                0x0000000000000000       0x32 common/built-in.o
 .text.usb_get_report
                0x0000000000000000       0x3a common/built-in.o
 .text.usb_get_class_descriptor
                0x0000000000000000       0x3a common/built-in.o
 .text.board_usb_init
                0x0000000000000000        0x4 common/built-in.o
 .text.splash_screen_prepare
                0x0000000000000000        0x4 common/built-in.o
 .text.bounce_buffer_start
                0x0000000000000000       0x4c common/built-in.o
 .text.bounce_buffer_stop
                0x0000000000000000       0x32 common/built-in.o
 .text.serial_printf
                0x0000000000000000       0x2e common/built-in.o
 .text.fputc    0x0000000000000000       0x14 common/built-in.o
 .text.fputs    0x0000000000000000       0x14 common/built-in.o
 .text.fprintf  0x0000000000000000       0x32 common/built-in.o
 .text.disable_ctrlc
                0x0000000000000000       0x10 common/built-in.o
 .text.valloc   0x0000000000000000        0xa common/built-in.o
 .text.pvalloc  0x0000000000000000       0x14 common/built-in.o
 .text.cfree    0x0000000000000000        0x4 common/built-in.o
 .text.malloc_usable_size
                0x0000000000000000       0x2a common/built-in.o
 .text.mallopt  0x0000000000000000       0x30 common/built-in.o
 .text.get_table_entry_id
                0x0000000000000000       0x26 common/built-in.o
 .text.genimg_get_os_id
                0x0000000000000000       0x14 common/built-in.o
 .text.genimg_get_arch_id
                0x0000000000000000       0x14 common/built-in.o
 .text.genimg_get_type_id
                0x0000000000000000       0x14 common/built-in.o
 .text.genimg_get_comp_id
                0x0000000000000000       0x14 common/built-in.o
 .text.genimg_get_kernel_addr
                0x0000000000000000       0x18 common/built-in.o
 .text.arch_fixup_fdt
                0x0000000000000000        0x4 common/built-in.o
 .text.get_ram_size
                0x0000000000000000       0x90 common/built-in.o
 .text.stdio_init
                0x0000000000000000        0xe common/built-in.o
 .text.cli_simple_parse_line
                0x0000000000000000       0x58 common/built-in.o
 .text.cli_simple_process_macros
                0x0000000000000000      0x124 common/built-in.o
 .text.cli_simple_run_command
                0x0000000000000000       0xcc common/built-in.o
 .text.cli_simple_loop
                0x0000000000000000       0x54 common/built-in.o
 .text.cli_simple_run_command_list
                0x0000000000000000       0x3a common/built-in.o
 .text.run_command_repeatable
                0x0000000000000000       0x12 common/built-in.o
 .rodata.__FUNCTION__.7907
                0x0000000000000000       0x17 common/built-in.o
 .rodata.__FUNCTION__.7304
                0x0000000000000000       0x10 common/built-in.o
 .data          0x0000000000000000        0x0 common/built-in.o
 .data.hash_algo
                0x0000000000000000       0x1c common/built-in.o
 .data.of_busses
                0x0000000000000000       0x14 common/built-in.o
 .bss           0x0000000000000000        0x0 common/built-in.o
 .bss.env_ptr   0x0000000000000000        0x4 common/built-in.o
 .bss.save_addr
                0x0000000000000000        0x4 common/built-in.o
 .bss.save_size
                0x0000000000000000        0x4 common/built-in.o
 .bss.lastcommand.6862
                0x0000000000000000      0x400 common/built-in.o
 .text          0x0000000000000000        0x0 disk/built-in.o
 .text.get_dev  0x0000000000000000        0x6 disk/built-in.o
 .data          0x0000000000000000        0x0 disk/built-in.o
 .bss           0x0000000000000000        0x0 disk/built-in.o
 .text          0x0000000000000000        0x0 drivers/built-in.o
 .text.dev_get_parent_platdata
                0x0000000000000000       0x20 drivers/built-in.o
 .text.dev_get_parentdata
                0x0000000000000000       0x20 drivers/built-in.o
 .text.device_get_child
                0x0000000000000000       0x32 drivers/built-in.o
 .text.device_find_child_by_seq
                0x0000000000000000       0x36 drivers/built-in.o
 .text.device_get_child_by_seq
                0x0000000000000000       0x38 drivers/built-in.o
 .text.device_find_child_by_of_offset
                0x0000000000000000       0x2a drivers/built-in.o
 .text.device_get_child_by_of_offset
                0x0000000000000000       0x20 drivers/built-in.o
 .text.device_find_first_child
                0x0000000000000000       0x14 drivers/built-in.o
 .text.device_find_next_child
                0x0000000000000000       0x16 drivers/built-in.o
 .text.dev_get_parent
                0x0000000000000000        0x4 drivers/built-in.o
 .text.dev_get_of_data
                0x0000000000000000        0x6 drivers/built-in.o
 .text.device_get_uclass_id
                0x0000000000000000        0x8 drivers/built-in.o
 .text.dev_get_addr
                0x0000000000000000        0x6 drivers/built-in.o
 .text.device_bind_driver
                0x0000000000000000       0x50 drivers/built-in.o
 .text.dm_uninit
                0x0000000000000000       0x16 drivers/built-in.o
 .text.uclass_destroy
                0x0000000000000000       0x60 drivers/built-in.o
 .text.uclass_get_device_by_seq
                0x0000000000000000       0x3c drivers/built-in.o
 .text.uclass_get_device_by_of_offset
                0x0000000000000000       0x4c drivers/built-in.o
 .text.uclass_first_device
                0x0000000000000000       0x2a drivers/built-in.o
 .text.uclass_next_device
                0x0000000000000000       0x22 drivers/built-in.o
 .text.dm_dbg   0x0000000000000000       0x1a drivers/built-in.o
 .text.list_count_items
                0x0000000000000000       0x12 drivers/built-in.o
 .text.device_unbind
                0x0000000000000000       0x96 drivers/built-in.o
 .text.input_tstc
                0x0000000000000000       0x28 drivers/built-in.o
 .text.input_getc
                0x0000000000000000       0x32 drivers/built-in.o
 .text.input_send_keycodes
                0x0000000000000000      0x27c drivers/built-in.o
 .text.input_add_table
                0x0000000000000000       0x24 drivers/built-in.o
 .text.input_set_delays
                0x0000000000000000        0xa drivers/built-in.o
 .text.input_init
                0x0000000000000000       0x84 drivers/built-in.o
 .text.input_stdio_register
                0x0000000000000000       0x34 drivers/built-in.o
 .rodata.__func__.8204
                0x0000000000000000       0x13 drivers/built-in.o
 .rodata.__func__.8196
                0x0000000000000000       0x18 drivers/built-in.o
 .rodata.kbd_to_ansi364
                0x0000000000000000       0x20 drivers/built-in.o
 .rodata.kbd_plain_xlate
                0x0000000000000000       0x63 drivers/built-in.o
 .rodata.CSWTCH.28
                0x0000000000000000        0xd drivers/built-in.o
 .data          0x0000000000000000        0x0 drivers/built-in.o
 .data.kbd_ctrl_xlate
                0x0000000000000000       0x63 drivers/built-in.o
 .data.kbd_shift_xlate
                0x0000000000000000       0x63 drivers/built-in.o
 .bss           0x0000000000000000        0x0 drivers/built-in.o
 .text          0x0000000000000000        0x0 drivers/gpio/built-in.o
 .data          0x0000000000000000        0x0 drivers/gpio/built-in.o
 .bss           0x0000000000000000        0x0 drivers/gpio/built-in.o
 .text          0x0000000000000000        0x0 drivers/i2c/built-in.o
 .text.i2c_reloc_fixup
                0x0000000000000000        0x2 drivers/i2c/built-in.o
 .text.i2c_init_board
                0x0000000000000000        0x2 drivers/i2c/built-in.o
 .text.i2c_reg_read
                0x0000000000000000       0x18 drivers/i2c/built-in.o
 .text.i2c_reg_write
                0x0000000000000000       0x16 drivers/i2c/built-in.o
 .text.i2c_get_base
                0x0000000000000000       0x10 drivers/i2c/built-in.o
 .data          0x0000000000000000        0x0 drivers/i2c/built-in.o
 .bss           0x0000000000000000        0x0 drivers/i2c/built-in.o
 .text          0x0000000000000000        0x0 drivers/mmc/built-in.o
 .text.fdt_fixup_esdhc
                0x0000000000000000       0x3c drivers/mmc/built-in.o
 .text.board_mmc_getcd
                0x0000000000000000        0x6 drivers/mmc/built-in.o
 .text.mmc_register
                0x0000000000000000       0x18 drivers/mmc/built-in.o
 .text.mmc_destroy
                0x0000000000000000        0x4 drivers/mmc/built-in.o
 .text.cpu_mmc_init
                0x0000000000000000        0x6 drivers/mmc/built-in.o
 .text.board_mmc_init
                0x0000000000000000        0x6 drivers/mmc/built-in.o
 .text.mmc_set_preinit
                0x0000000000000000        0x6 drivers/mmc/built-in.o
 .rodata.__func__.7333
                0x0000000000000000        0xd drivers/mmc/built-in.o
 .data          0x0000000000000000        0x0 drivers/mmc/built-in.o
 .bss           0x0000000000000000        0x0 drivers/mmc/built-in.o
 .text          0x0000000000000000        0x0 drivers/mtd/spi/built-in.o
 .text.spi_flash_cmd_write_status
                0x0000000000000000       0x24 drivers/mtd/spi/built-in.o
 .data          0x0000000000000000        0x0 drivers/mtd/spi/built-in.o
 .bss           0x0000000000000000        0x0 drivers/mtd/spi/built-in.o
 .text          0x0000000000000000        0x0 drivers/net/built-in.o
 .data          0x0000000000000000        0x0 drivers/net/built-in.o
 .bss           0x0000000000000000        0x0 drivers/net/built-in.o
 .text          0x0000000000000000        0x0 drivers/net/phy/built-in.o
 .text.miiphy_reset
                0x0000000000000000       0x1a drivers/net/phy/built-in.o
 .text.phy_connect
                0x0000000000000000       0x34 drivers/net/phy/built-in.o
 .text.board_phy_config
                0x0000000000000000        0xc drivers/net/phy/built-in.o
 .text.phy_shutdown
                0x0000000000000000        0xe drivers/net/phy/built-in.o
 .data          0x0000000000000000        0x0 drivers/net/phy/built-in.o
 .bss           0x0000000000000000        0x0 drivers/net/phy/built-in.o
 .text          0x0000000000000000        0x0 drivers/power/built-in.o
 .text.pmic_set_output
                0x0000000000000000       0x3c drivers/power/built-in.o
 .data          0x0000000000000000        0x0 drivers/power/built-in.o
 .bss           0x0000000000000000        0x0 drivers/power/built-in.o
 .text          0x0000000000000000        0x0 drivers/power/pmic/built-in.o
 .data          0x0000000000000000        0x0 drivers/power/pmic/built-in.o
 .bss           0x0000000000000000        0x0 drivers/power/pmic/built-in.o
 .text          0x0000000000000000        0x0 drivers/serial/built-in.o
 .text.serial_reinit_all
                0x0000000000000000       0x18 drivers/serial/built-in.o
 .data          0x0000000000000000        0x0 drivers/serial/built-in.o
 .bss           0x0000000000000000        0x0 drivers/serial/built-in.o
 .text          0x0000000000000000        0x0 drivers/spi/built-in.o
 .text.spi_set_wordlen
                0x0000000000000000       0x20 drivers/spi/built-in.o
 .text.spi_init
                0x0000000000000000        0x2 drivers/spi/built-in.o
 .data          0x0000000000000000        0x0 drivers/spi/built-in.o
 .bss           0x0000000000000000        0x0 drivers/spi/built-in.o
 .text          0x0000000000000000        0x0 drivers/usb/eth/built-in.o
 .text.is_eth_dev_on_usb_host
                0x0000000000000000       0x38 drivers/usb/eth/built-in.o
 .data          0x0000000000000000        0x0 drivers/usb/eth/built-in.o
 .bss           0x0000000000000000        0x0 drivers/usb/eth/built-in.o
 .text          0x0000000000000000        0x0 drivers/usb/host/built-in.o
 .text.ehci_get_port_speed
                0x0000000000000000        0x6 drivers/usb/host/built-in.o
 .text.ehci_set_usbmode
                0x0000000000000000       0x18 drivers/usb/host/built-in.o
 .text.board_usb_phy_mode
                0x0000000000000000        0x4 drivers/usb/host/built-in.o
 .text.board_ehci_hcd_init
                0x0000000000000000        0x4 drivers/usb/host/built-in.o
 .data          0x0000000000000000        0x0 drivers/usb/host/built-in.o
 .bss           0x0000000000000000        0x0 drivers/usb/host/built-in.o
 .text          0x0000000000000000        0x0 fs/built-in.o
 .text.fs_uuid  0x0000000000000000       0x1c fs/built-in.o
 .text.fs_write
                0x0000000000000000       0x60 fs/built-in.o
 .text.do_save  0x0000000000000000       0xf8 fs/built-in.o
 .text.do_fs_uuid
                0x0000000000000000       0x58 fs/built-in.o
 .text.do_fs_type
                0x0000000000000000       0x4c fs/built-in.o
 .text.fat_register_device
                0x0000000000000000       0x50 fs/built-in.o
 .text.file_fat_read
                0x0000000000000000       0x22 fs/built-in.o
 .text.file_getfsname
                0x0000000000000000       0x10 fs/built-in.o
 .text.file_cd  0x0000000000000000      0x118 fs/built-in.o
 .text.file_detectfs
                0x0000000000000000       0x2c fs/built-in.o
 .text.file_ls  0x0000000000000000       0x5c fs/built-in.o
 .text.file_read
                0x0000000000000000       0x64 fs/built-in.o
 .rodata.filesystems
                0x0000000000000000       0x18 fs/built-in.o
 .data          0x0000000000000000        0x0 fs/built-in.o
 .data.file_cwd
                0x0000000000000000      0x200 fs/built-in.o
 .data.current_filesystem
                0x0000000000000000        0x4 fs/built-in.o
 .bss           0x0000000000000000        0x0 fs/built-in.o
 .bss.ext4fs_symlinknest
                0x0000000000000000        0x4 fs/built-in.o
 .bss.g_parent_inode
                0x0000000000000000        0x4 fs/built-in.o
 .text          0x0000000000000000        0x0 lib/built-in.o
 .text.inflateInit_
                0x0000000000000000        0xa lib/built-in.o
 .text.fdt_first_subnode
                0x0000000000000000       0x28 lib/built-in.o
 .text.fdt_next_subnode
                0x0000000000000000       0x2e lib/built-in.o
 .text.fdt_getprop_by_offset
                0x0000000000000000       0x26 lib/built-in.o
 .text.fdt_get_phandle
                0x0000000000000000       0x40 lib/built-in.o
 .text.fdt_get_alias
                0x0000000000000000       0x1a lib/built-in.o
 .text.fdt_get_path
                0x0000000000000000       0xba lib/built-in.o
 .text.fdt_parent_offset
                0x0000000000000000       0x20 lib/built-in.o
 .text.fdt_node_offset_by_prop_value
                0x0000000000000000       0x50 lib/built-in.o
 .text.fdt_node_offset_by_phandle
                0x0000000000000000       0x40 lib/built-in.o
 .text.fdt_count_strings
                0x0000000000000000       0x36 lib/built-in.o
 .text.fdt_find_string
                0x0000000000000000       0x56 lib/built-in.o
 .text.fdt_get_string_index
                0x0000000000000000       0x36 lib/built-in.o
 .text.fdt_get_string
                0x0000000000000000       0x10 lib/built-in.o
 .text.fdt_set_name
                0x0000000000000000       0x52 lib/built-in.o
 .text.fdt_appendprop
                0x0000000000000000       0x7e lib/built-in.o
 .text.fdt_pack
                0x0000000000000000       0x34 lib/built-in.o
 .text._fdt_sw_check_header
                0x0000000000000000       0x14 lib/built-in.o
 .text._fdt_grab_space
                0x0000000000000000       0x30 lib/built-in.o
 .text.fdt_create
                0x0000000000000000       0x40 lib/built-in.o
 .text.fdt_resize
                0x0000000000000000       0x72 lib/built-in.o
 .text.fdt_add_reservemap_entry
                0x0000000000000000       0x60 lib/built-in.o
 .text.fdt_finish_reservemap
                0x0000000000000000       0x14 lib/built-in.o
 .text.fdt_begin_node
                0x0000000000000000       0x42 lib/built-in.o
 .text.fdt_end_node
                0x0000000000000000       0x26 lib/built-in.o
 .text.fdt_property
                0x0000000000000000       0xac lib/built-in.o
 .text.fdt_finish
                0x0000000000000000       0x90 lib/built-in.o
 .text.fdt_setprop_inplace
                0x0000000000000000       0x2a lib/built-in.o
 .text.fdt_nop_property
                0x0000000000000000       0x2a lib/built-in.o
 .text.fdt_nop_node
                0x0000000000000000       0x32 lib/built-in.o
 .text.fdt_find_regions
                0x0000000000000000      0x21e lib/built-in.o
 .text.fdt_create_empty_tree
                0x0000000000000000       0x44 lib/built-in.o
 .text.crc7     0x0000000000000000       0x1c lib/built-in.o
 .text.crc8     0x0000000000000000       0x30 lib/built-in.o
 .text.lmb_dump_all
                0x0000000000000000        0x2 lib/built-in.o
 .text.lmb_is_reserved
                0x0000000000000000       0x28 lib/built-in.o
 .text.arch_lmb_reserve
                0x0000000000000000        0x2 lib/built-in.o
 .text.ldiv     0x0000000000000000       0x2e lib/built-in.o
 .text.strmhz   0x0000000000000000       0x48 lib/built-in.o
 .text.merge    0x0000000000000000       0x36 lib/built-in.o
 .text.list_sort
                0x0000000000000000       0xe8 lib/built-in.o
 .text.crc32_wd_buf
                0x0000000000000000       0x22 lib/built-in.o
 .text.copy_from_user
                0x0000000000000000        0xa lib/built-in.o
 .text.kmalloc  0x0000000000000000        0x8 lib/built-in.o
 .text.kzalloc  0x0000000000000000       0x1a lib/built-in.o
 .text.vzalloc  0x0000000000000000        0x6 lib/built-in.o
 .text.get_mem  0x0000000000000000       0x10 lib/built-in.o
 .text.kmem_cache_alloc
                0x0000000000000000        0x8 lib/built-in.o
 .text.strncasecmp
                0x0000000000000000       0x44 lib/built-in.o
 .text.strcasecmp
                0x0000000000000000        0x8 lib/built-in.o
 .text.strspn   0x0000000000000000       0x1e lib/built-in.o
 .text.strtok   0x0000000000000000       0x44 lib/built-in.o
 .text.strsep   0x0000000000000000       0x1e lib/built-in.o
 .text.strswab  0x0000000000000000       0x26 lib/built-in.o
 .text.bcopy    0x0000000000000000       0x1a lib/built-in.o
 .text.memscan  0x0000000000000000       0x16 lib/built-in.o
 .text.memchr_inv
                0x0000000000000000       0xaa lib/built-in.o
 .text.tick_to_time
                0x0000000000000000       0x48 lib/built-in.o
 .text.get_ticks
                0x0000000000000000       0x32 lib/built-in.o
 .text.timer_init
                0x0000000000000000        0x4 lib/built-in.o
 .text.get_timer
                0x0000000000000000       0x10 lib/built-in.o
 .text.timer_get_us
                0x0000000000000000       0x1c lib/built-in.o
 .text.__udelay
                0x0000000000000000       0x74 lib/built-in.o
 .text.__assert_fail
                0x0000000000000000       0x10 lib/built-in.o
 .text.print_grouped_ull
                0x0000000000000000       0x5c lib/built-in.o
 .rodata.z_errmsg
                0x0000000000000000       0x28 lib/built-in.o
 .rodata.crc7_syndrome_table
                0x0000000000000000      0x100 lib/built-in.o
 .data          0x0000000000000000        0x0 lib/built-in.o
 .data.cur      0x0000000000000000        0x4 lib/built-in.o
 .data.current  0x0000000000000000        0x4 lib/built-in.o
 .bss           0x0000000000000000        0x0 lib/built-in.o
 .bss.___strtok
                0x0000000000000000        0x4 lib/built-in.o
 .text          0x0000000000000000        0x0 net/built-in.o
 .text.add_ip_checksums
                0x0000000000000000       0x2a net/built-in.o
 .text.eth_get_dev_by_name
                0x0000000000000000       0x50 net/built-in.o
 .text.net_get_udp_handler
                0x0000000000000000        0xc net/built-in.o
 .text.net_set_arp_handler
                0x0000000000000000       0x18 net/built-in.o
 .text.random_port
                0x0000000000000000       0x12 net/built-in.o
 .text.VLAN_to_string
                0x0000000000000000       0x34 net/built-in.o
 .rodata.__FUNCTION__.7247
                0x0000000000000000       0x14 net/built-in.o
 .data          0x0000000000000000        0x0 net/built-in.o
 .data.TftpRRQTimeoutMSecs
                0x0000000000000000        0x4 net/built-in.o
 .bss           0x0000000000000000        0x0 net/built-in.o
 .bss.net_busy_flag
                0x0000000000000000        0x4 net/built-in.o
 .text          0x0000000000000000        0x0 test/dm/built-in.o
 .data          0x0000000000000000        0x0 test/dm/built-in.o
 .bss           0x0000000000000000        0x0 test/dm/built-in.o
 .text          0x0000000000000000        0x0 arch/arm/lib/eabi_compat.o
 .data          0x0000000000000000        0x0 arch/arm/lib/eabi_compat.o
 .bss           0x0000000000000000        0x0 arch/arm/lib/eabi_compat.o
 .text.__aeabi_unwind_cpp_pr0
                0x0000000000000000        0x2 arch/arm/lib/eabi_compat.o
 .text.__aeabi_unwind_cpp_pr1
                0x0000000000000000        0x2 arch/arm/lib/eabi_compat.o
 .text.__aeabi_memcpy
                0x0000000000000000        0x4 arch/arm/lib/eabi_compat.o
 .text.__aeabi_memset
                0x0000000000000000        0xa arch/arm/lib/eabi_compat.o
 .data          0x0000000000000000        0x0 /usr/lib/gcc-cross/arm-linux-gnueabihf/5/libgcc.a(_udivsi3.o)
 .bss           0x0000000000000000        0x0 /usr/lib/gcc-cross/arm-linux-gnueabihf/5/libgcc.a(_udivsi3.o)
 .data          0x0000000000000000        0x0 /usr/lib/gcc-cross/arm-linux-gnueabihf/5/libgcc.a(_divsi3.o)
 .bss           0x0000000000000000        0x0 /usr/lib/gcc-cross/arm-linux-gnueabihf/5/libgcc.a(_divsi3.o)
 .data          0x0000000000000000        0x0 /usr/lib/gcc-cross/arm-linux-gnueabihf/5/libgcc.a(_lshrdi3.o)
 .bss           0x0000000000000000        0x0 /usr/lib/gcc-cross/arm-linux-gnueabihf/5/libgcc.a(_lshrdi3.o)
 .data          0x0000000000000000        0x0 /usr/lib/gcc-cross/arm-linux-gnueabihf/5/libgcc.a(_ashldi3.o)
 .bss           0x0000000000000000        0x0 /usr/lib/gcc-cross/arm-linux-gnueabihf/5/libgcc.a(_ashldi3.o)
 .data          0x0000000000000000        0x0 /usr/lib/gcc-cross/arm-linux-gnueabihf/5/libgcc.a(_dvmd_lnx.o)
 .bss           0x0000000000000000        0x0 /usr/lib/gcc-cross/arm-linux-gnueabihf/5/libgcc.a(_dvmd_lnx.o)

Memory Configuration

Name             Origin             Length             Attributes
*default*        0x0000000000000000 0xffffffffffffffff

Linker script and memory map

Address of section .text set to 0x87800000
                0x0000000000000000                . = 0x0
                0x0000000000000000                . = ALIGN (0x4)

.text           0x0000000087800000    0x21cfc
 *(.__image_copy_start)
 .__image_copy_start
                0x0000000087800000        0x0 arch/arm/lib/built-in.o
                0x0000000087800000                __image_copy_start
 *(.vectors)
 .vectors       0x0000000087800000      0x2e8 arch/arm/lib/built-in.o
                0x0000000087800000                _start
                0x0000000087800020                _undefined_instruction
                0x0000000087800024                _software_interrupt
                0x0000000087800028                _prefetch_abort
                0x000000008780002c                _data_abort
                0x0000000087800030                _not_used
                0x0000000087800034                _irq
                0x0000000087800038                _fiq
                0x0000000087800040                IRQ_STACK_START_IN
 arch/arm/cpu/armv7/start.o(.text*)
 .text          0x00000000878002e8       0xbc arch/arm/cpu/armv7/start.o
                0x00000000878002e8                reset
                0x00000000878002ec                save_boot_params_ret
                0x0000000087800328                c_runtime_cpu_setup
                0x0000000087800338                save_boot_params
                0x000000008780033c                cpu_init_cp15
                0x000000008780039c                cpu_init_crit
 *(.text*)
 .text          0x00000000878003a4       0x1c arch/arm/cpu/armv7/built-in.o
                0x00000000878003a4                lowlevel_init
 .text.v7_maint_dcache_all
                0x00000000878003c0       0xb8 arch/arm/cpu/armv7/built-in.o
 .text.invalidate_icache_all
                0x0000000087800478       0x14 arch/arm/cpu/armv7/built-in.o
                0x0000000087800478                invalidate_icache_all
 .text.v7_outer_cache_enable
                0x000000008780048c       0x70 arch/arm/cpu/armv7/built-in.o
                0x0000000087800490                v7_outer_cache_enable
 .text.v7_outer_cache_disable
                0x00000000878004fc       0x14 arch/arm/cpu/armv7/built-in.o
                0x0000000087800500                v7_outer_cache_disable
 .text.flush_dcache_all
                0x0000000087800510       0x10 arch/arm/cpu/armv7/built-in.o
                0x0000000087800510                flush_dcache_all
 .text.invalidate_dcache_all
                0x0000000087800520       0x10 arch/arm/cpu/armv7/built-in.o
                0x0000000087800520                invalidate_dcache_all
 .text.arm_init_before_mmu
                0x0000000087800530       0x22 arch/arm/cpu/armv7/built-in.o
                0x0000000087800530                arm_init_before_mmu
 .text.flush_dcache_range
                0x0000000087800552       0x28 arch/arm/cpu/armv7/built-in.o
                0x0000000087800552                flush_dcache_range
 .text.mmu_page_table_flush
                0x000000008780057a       0x1e arch/arm/cpu/armv7/built-in.o
                0x000000008780057a                mmu_page_table_flush
 .text.flush_cache
                0x0000000087800598        0x6 arch/arm/cpu/armv7/built-in.o
                0x0000000087800598                flush_cache
 *fill*         0x000000008780059e        0x2 
 .text.invalidate_dcache_range
                0x00000000878005a0       0x78 arch/arm/cpu/armv7/built-in.o
                0x00000000878005a0                invalidate_dcache_range
 .text.cpu_cache_initialization
                0x0000000087800618        0x2 arch/arm/cpu/armv7/built-in.o
                0x0000000087800618                cpu_cache_initialization
 .text.cleanup_before_linux
                0x000000008780061a       0x22 arch/arm/cpu/armv7/built-in.o
                0x000000008780061a                cleanup_before_linux
 .text.set_ldo_voltage
                0x000000008780063c       0x88 arch/arm/cpu/armv7/built-in.o
 .text.get_nr_cpus
                0x00000000878006c4        0xc arch/arm/cpu/armv7/built-in.o
                0x00000000878006c4                get_nr_cpus
 .text.get_cpu_rev
                0x00000000878006d0       0x4c arch/arm/cpu/armv7/built-in.o
                0x00000000878006d0                get_cpu_rev
 .text.init_aips
                0x000000008780071c       0x44 arch/arm/cpu/armv7/built-in.o
                0x000000008780071c                init_aips
 .text.arch_cpu_init
                0x0000000087800760      0x12c arch/arm/cpu/armv7/built-in.o
                0x0000000087800760                arch_cpu_init
 .text.board_postclk_init
                0x000000008780088c       0x10 arch/arm/cpu/armv7/built-in.o
                0x000000008780088c                board_postclk_init
 .text.enable_caches
                0x000000008780089c       0x2c arch/arm/cpu/armv7/built-in.o
                0x000000008780089c                enable_caches
 .text.imx_get_mac_from_fuse
                0x00000000878008c8       0x44 arch/arm/cpu/armv7/built-in.o
                0x00000000878008c8                imx_get_mac_from_fuse
 .text.boot_mode_apply
                0x000000008780090c       0x1c arch/arm/cpu/armv7/built-in.o
                0x000000008780090c                boot_mode_apply
 .text.s_init   0x0000000087800928       0x8c arch/arm/cpu/armv7/built-in.o
                0x0000000087800928                s_init
 .text.set_wdog_reset
                0x00000000878009b4        0xe arch/arm/cpu/armv7/built-in.o
                0x00000000878009b4                set_wdog_reset
 .text.reset_misc
                0x00000000878009c2        0x2 arch/arm/cpu/armv7/built-in.o
                0x00000000878009c2                reset_misc
 .text.check_ldo_bypass
                0x00000000878009c4       0x58 arch/arm/cpu/armv7/built-in.o
                0x00000000878009c4                check_ldo_bypass
 .text.prep_anatop_bypass
                0x0000000087800a1c       0x20 arch/arm/cpu/armv7/built-in.o
                0x0000000087800a1c                prep_anatop_bypass
 .text.set_anatop_bypass
                0x0000000087800a3c       0x3c arch/arm/cpu/armv7/built-in.o
                0x0000000087800a3c                set_anatop_bypass
 .text.finish_anatop_bypass
                0x0000000087800a78       0x14 arch/arm/cpu/armv7/built-in.o
                0x0000000087800a78                finish_anatop_bypass
 .text.get_ipg_clk
                0x0000000087800a8c       0x1c arch/arm/cpu/armv7/built-in.o
 .text.get_uart_clk
                0x0000000087800aa8       0x40 arch/arm/cpu/armv7/built-in.o
 .text.mxc_get_pll_pfd
                0x0000000087800ae8       0x78 arch/arm/cpu/armv7/built-in.o
 .text.get_usdhc_clk
                0x0000000087800b60       0x58 arch/arm/cpu/armv7/built-in.o
 .text.enable_ocotp_clk
                0x0000000087800bb8       0x1c arch/arm/cpu/armv7/built-in.o
                0x0000000087800bb8                enable_ocotp_clk
 .text.enable_usboh3_clk
                0x0000000087800bd4       0x20 arch/arm/cpu/armv7/built-in.o
                0x0000000087800bd4                enable_usboh3_clk
 .text.enable_i2c_clk
                0x0000000087800bf4       0x4c arch/arm/cpu/armv7/built-in.o
                0x0000000087800bf4                enable_i2c_clk
 .text.get_periph_clk
                0x0000000087800c40       0x8c arch/arm/cpu/armv7/built-in.o
                0x0000000087800c40                get_periph_clk
 .text.get_axi_clk
                0x0000000087800ccc       0x34 arch/arm/cpu/armv7/built-in.o
 .text.enable_qspi_clk
                0x0000000087800d00       0x68 arch/arm/cpu/armv7/built-in.o
                0x0000000087800d00                enable_qspi_clk
 .text.enable_fec_anatop_clock
                0x0000000087800d68       0x94 arch/arm/cpu/armv7/built-in.o
                0x0000000087800d68                enable_fec_anatop_clock
 .text.imx_get_uartclk
                0x0000000087800dfc        0x4 arch/arm/cpu/armv7/built-in.o
                0x0000000087800dfc                imx_get_uartclk
 .text.enable_thermal_clk
                0x0000000087800e00       0x2c arch/arm/cpu/armv7/built-in.o
                0x0000000087800e00                enable_thermal_clk
 .text.mxc_get_clock
                0x0000000087800e2c      0x194 arch/arm/cpu/armv7/built-in.o
                0x0000000087800e2c                mxc_get_clock
 .text.imx_get_fecclk
                0x0000000087800fc0        0x6 arch/arm/cpu/armv7/built-in.o
                0x0000000087800fc0                imx_get_fecclk
 *fill*         0x0000000087800fc6        0x2 
 .text.do_mx6_showclocks
                0x0000000087800fc8      0x1a8 arch/arm/cpu/armv7/built-in.o
                0x0000000087800fc8                do_mx6_showclocks
 .text.cpu_reset
                0x0000000087801170       0x1c arch/arm/cpu/armv7/built-in.o
                0x0000000087801170                cpu_reset
 .text.cpu_status
                0x000000008780118c       0x2c arch/arm/cpu/armv7/built-in.o
                0x000000008780118c                cpu_status
 .text.cpu_release
                0x00000000878011b8       0x4c arch/arm/cpu/armv7/built-in.o
                0x00000000878011b8                cpu_release
 .text.is_core_valid
                0x0000000087801204       0x12 arch/arm/cpu/armv7/built-in.o
                0x0000000087801204                is_core_valid
 *fill*         0x0000000087801216        0x2 
 .text.cpu_disable
                0x0000000087801218       0x1c arch/arm/cpu/armv7/built-in.o
                0x0000000087801218                cpu_disable
 .text.imx_iomux_v3_setup_pad
                0x0000000087801234       0x74 arch/arm/imx-common/built-in.o
                0x0000000087801234                imx_iomux_v3_setup_pad
 .text.imx_iomux_v3_setup_multiple_pads
                0x00000000878012a8       0x1a arch/arm/imx-common/built-in.o
                0x00000000878012a8                imx_iomux_v3_setup_multiple_pads
 *fill*         0x00000000878012c2        0x2 
 .text.get_imx_type
                0x00000000878012c4       0x18 arch/arm/imx-common/built-in.o
                0x00000000878012c4                get_imx_type
 .text.print_cpuinfo
                0x00000000878012dc      0x164 arch/arm/imx-common/built-in.o
                0x00000000878012dc                print_cpuinfo
 .text.cpu_eth_init
                0x0000000087801440        0x4 arch/arm/imx-common/built-in.o
                0x0000000087801440                cpu_eth_init
 .text.cpu_mmc_init
                0x0000000087801444        0x4 arch/arm/imx-common/built-in.o
                0x0000000087801444                cpu_mmc_init
 .text.get_ahb_clk
                0x0000000087801448       0x1c arch/arm/imx-common/built-in.o
                0x0000000087801448                get_ahb_clk
 .text.arch_preboot_os
                0x0000000087801464        0xe arch/arm/imx-common/built-in.o
                0x0000000087801464                arch_preboot_os
 .text.get_clocks
                0x0000000087801472       0x12 arch/arm/imx-common/built-in.o
                0x0000000087801472                get_clocks
 .text.force_idle_bus
                0x0000000087801484      0x14c arch/arm/imx-common/built-in.o
 .text.setup_i2c
                0x00000000878015d0       0x94 arch/arm/imx-common/built-in.o
                0x00000000878015d0                setup_i2c
 .text.timer_init
                0x0000000087801664       0xe4 arch/arm/imx-common/built-in.o
                0x0000000087801664                timer_init
 .text.get_ticks
                0x0000000087801748       0x34 arch/arm/imx-common/built-in.o
                0x0000000087801748                get_ticks
 .text.get_timer_masked
                0x000000008780177c       0xa8 arch/arm/imx-common/built-in.o
                0x000000008780177c                get_timer_masked
 .text.get_timer
                0x0000000087801824        0xc arch/arm/imx-common/built-in.o
                0x0000000087801824                get_timer
 .text.__udelay
                0x0000000087801830       0xd0 arch/arm/imx-common/built-in.o
                0x0000000087801830                __udelay
 .text.get_tbclk
                0x0000000087801900       0x6c arch/arm/imx-common/built-in.o
                0x0000000087801900                get_tbclk
 .text.do_boot_mode
                0x000000008780196c       0x80 arch/arm/imx-common/built-in.o
 .text          0x00000000878019ec       0xa8 arch/arm/lib/built-in.o
                0x00000000878019ec                _main
 .text.relocate_vectors
                0x0000000087801a94       0x70 arch/arm/lib/built-in.o
                0x0000000087801a94                relocate_vectors
                0x0000000087801aa0                relocate_code
 .text.arch_fixup_fdt
                0x0000000087801b04       0x24 arch/arm/lib/built-in.o
                0x0000000087801b04                arch_fixup_fdt
 .text.boot_jump_linux
                0x0000000087801b28       0x78 arch/arm/lib/built-in.o
 .text.arch_lmb_reserve
                0x0000000087801ba0       0x1e arch/arm/lib/built-in.o
                0x0000000087801ba0                arch_lmb_reserve
 .text.setup_board_tags
                0x0000000087801bbe        0x2 arch/arm/lib/built-in.o
                0x0000000087801bbe                setup_board_tags
 .text.boot_prep_linux
                0x0000000087801bc0       0xf8 arch/arm/lib/built-in.o
 .text.do_bootm_linux
                0x0000000087801cb8       0x44 arch/arm/lib/built-in.o
                0x0000000087801cb8                do_bootm_linux
 .text.bootz_setup
                0x0000000087801cfc       0x38 arch/arm/lib/built-in.o
                0x0000000087801cfc                bootz_setup
 .text.boot_prep_vxworks
                0x0000000087801d34       0x30 arch/arm/lib/built-in.o
                0x0000000087801d34                boot_prep_vxworks
 .text.boot_jump_vxworks
                0x0000000087801d64        0x6 arch/arm/lib/built-in.o
                0x0000000087801d64                boot_jump_vxworks
 *fill*         0x0000000087801d6a        0x2 
 .text.pl310_background_op_all_ways
                0x0000000087801d6c       0x2c arch/arm/lib/built-in.o
 .text.v7_outer_cache_inval_all
                0x0000000087801d98        0xc arch/arm/lib/built-in.o
                0x0000000087801d98                v7_outer_cache_inval_all
 .text.v7_outer_cache_flush_all
                0x0000000087801da4        0xc arch/arm/lib/built-in.o
                0x0000000087801da4                v7_outer_cache_flush_all
 .text.v7_outer_cache_flush_range
                0x0000000087801db0       0x20 arch/arm/lib/built-in.o
                0x0000000087801db0                v7_outer_cache_flush_range
 .text.v7_outer_cache_inval_range
                0x0000000087801dd0       0x54 arch/arm/lib/built-in.o
                0x0000000087801dd0                v7_outer_cache_inval_range
 .text.arch_reserve_stacks
                0x0000000087801e24       0x16 arch/arm/lib/built-in.o
                0x0000000087801e24                arch_reserve_stacks
 *fill*         0x0000000087801e3a        0x2 
 .text.interrupt_init
                0x0000000087801e3c       0x14 arch/arm/lib/built-in.o
                0x0000000087801e3c                interrupt_init
 .text.enable_interrupts
                0x0000000087801e50        0x2 arch/arm/lib/built-in.o
                0x0000000087801e50                enable_interrupts
 .text.disable_interrupts
                0x0000000087801e52        0x4 arch/arm/lib/built-in.o
                0x0000000087801e52                disable_interrupts
 *fill*         0x0000000087801e56        0x2 
 .text.bad_mode
                0x0000000087801e58        0xc arch/arm/lib/built-in.o
                0x0000000087801e58                bad_mode
 .text.show_regs
                0x0000000087801e64      0x108 arch/arm/lib/built-in.o
                0x0000000087801e64                show_regs
 .text.do_undefined_instruction
                0x0000000087801f6c       0x18 arch/arm/lib/built-in.o
                0x0000000087801f6c                do_undefined_instruction
 .text.do_software_interrupt
                0x0000000087801f84       0x18 arch/arm/lib/built-in.o
                0x0000000087801f84                do_software_interrupt
 .text.do_prefetch_abort
                0x0000000087801f9c       0x18 arch/arm/lib/built-in.o
                0x0000000087801f9c                do_prefetch_abort
 .text.do_data_abort
                0x0000000087801fb4       0x18 arch/arm/lib/built-in.o
                0x0000000087801fb4                do_data_abort
 .text.do_not_used
                0x0000000087801fcc       0x18 arch/arm/lib/built-in.o
                0x0000000087801fcc                do_not_used
 .text.do_fiq   0x0000000087801fe4       0x18 arch/arm/lib/built-in.o
                0x0000000087801fe4                do_fiq
 .text.do_irq   0x0000000087801ffc       0x18 arch/arm/lib/built-in.o
                0x0000000087801ffc                do_irq
 .text.do_reset
                0x0000000087802014       0x28 arch/arm/lib/built-in.o
                0x0000000087802014                do_reset
 .text.cp_delay
                0x000000008780203c       0x18 arch/arm/lib/built-in.o
 .text.cache_disable
                0x0000000087802054       0x3c arch/arm/lib/built-in.o
 .text.arm_init_domains
                0x0000000087802090        0x2 arch/arm/lib/built-in.o
                0x0000000087802090                arm_init_domains
 .text.set_section_dcache
                0x0000000087802092       0x12 arch/arm/lib/built-in.o
                0x0000000087802092                set_section_dcache
 .text.mmu_set_region_dcache_behaviour
                0x00000000878020a4       0x36 arch/arm/lib/built-in.o
                0x00000000878020a4                mmu_set_region_dcache_behaviour
 .text.dram_bank_mmu_setup
                0x00000000878020da       0x2a arch/arm/lib/built-in.o
                0x00000000878020da                dram_bank_mmu_setup
 .text.icache_enable
                0x0000000087802104       0x14 arch/arm/lib/built-in.o
                0x0000000087802104                icache_enable
 .text.icache_disable
                0x0000000087802118        0x8 arch/arm/lib/built-in.o
                0x0000000087802118                icache_disable
 .text.icache_status
                0x0000000087802120        0xa arch/arm/lib/built-in.o
                0x0000000087802120                icache_status
 .text.dcache_enable
                0x000000008780212a       0x5e arch/arm/lib/built-in.o
                0x000000008780212a                dcache_enable
 .text.dcache_disable
                0x0000000087802188        0x6 arch/arm/lib/built-in.o
                0x0000000087802188                dcache_disable
 .text.dcache_status
                0x000000008780218e        0xa arch/arm/lib/built-in.o
                0x000000008780218e                dcache_status
 .text.dram_init
                0x0000000087802198       0x1c board/udoo/udoo_neo/built-in.o
                0x0000000087802198                dram_init
 .text.board_eth_init
                0x00000000878021b4       0xb0 board/udoo/udoo_neo/built-in.o
                0x00000000878021b4                board_eth_init
 .text.board_phy_config
                0x0000000087802264        0xe board/udoo/udoo_neo/built-in.o
                0x0000000087802264                board_phy_config
 *fill*         0x0000000087802272        0x2 
 .text.power_init_board
                0x0000000087802274      0x1fc board/udoo/udoo_neo/built-in.o
                0x0000000087802274                power_init_board
 .text.ldo_mode_set
                0x0000000087802470       0xc8 board/udoo/udoo_neo/built-in.o
                0x0000000087802470                ldo_mode_set
 .text.board_usb_phy_mode
                0x0000000087802538        0xc board/udoo/udoo_neo/built-in.o
                0x0000000087802538                board_usb_phy_mode
 .text.board_ehci_hcd_init
                0x0000000087802544       0x20 board/udoo/udoo_neo/built-in.o
                0x0000000087802544                board_ehci_hcd_init
 .text.board_early_init_f
                0x0000000087802564       0x14 board/udoo/udoo_neo/built-in.o
                0x0000000087802564                board_early_init_f
 .text.mmc_get_env_devno
                0x0000000087802578       0x1c board/udoo/udoo_neo/built-in.o
                0x0000000087802578                mmc_get_env_devno
 .text.board_mmc_getcd
                0x0000000087802594       0x24 board/udoo/udoo_neo/built-in.o
                0x0000000087802594                board_mmc_getcd
 .text.board_mmc_init
                0x00000000878025b8       0x70 board/udoo/udoo_neo/built-in.o
                0x00000000878025b8                board_mmc_init
 .text.check_mmc_autodetect
                0x0000000087802628       0x24 board/udoo/udoo_neo/built-in.o
                0x0000000087802628                check_mmc_autodetect
 .text.board_late_mmc_init
                0x000000008780264c       0x50 board/udoo/udoo_neo/built-in.o
                0x000000008780264c                board_late_mmc_init
 .text.board_qspi_init
                0x000000008780269c       0x18 board/udoo/udoo_neo/built-in.o
                0x000000008780269c                board_qspi_init
 *fill*         0x00000000878026b4        0x4 
 .text.board_init
                0x00000000878026b8      0x100 board/udoo/udoo_neo/built-in.o
                0x00000000878026b8                board_init
 .text.board_late_init
                0x00000000878027b8        0xa board/udoo/udoo_neo/built-in.o
                0x00000000878027b8                board_late_init
 .text.get_board_rev
                0x00000000878027c2        0x4 board/udoo/udoo_neo/built-in.o
                0x00000000878027c2                get_board_rev
 *fill*         0x00000000878027c6        0x2 
 .text.checkboard
                0x00000000878027c8       0x3c board/udoo/udoo_neo/built-in.o
                0x00000000878027c8                checkboard
 .text.isspace  0x0000000087802804       0x18 board/udoo/udoo_neo/built-in.o
                0x0000000087802804                isspace
 .text.trim     0x000000008780281c       0x3e board/udoo/udoo_neo/built-in.o
                0x000000008780281c                trim
 *fill*         0x000000008780285a        0x2 
 .text.do_udooinit
                0x000000008780285c      0x174 board/udoo/udoo_neo/built-in.o
                0x000000008780285c                do_udooinit
 .text.detect_board
                0x00000000878029d0       0x50 board/udoo/udoo_neo/built-in.o
                0x00000000878029d0                detect_board
 .text.show_boot_progress
                0x0000000087802a20        0x2 common/built-in.o
                0x0000000087802a20                show_boot_progress
 .text.main_loop
                0x0000000087802a22       0x1c common/built-in.o
                0x0000000087802a22                main_loop
 .text.dummy    0x0000000087802a3e        0x2 common/built-in.o
 .text.get_version
                0x0000000087802a40        0x4 common/built-in.o
                0x0000000087802a40                get_version
 .text.jumptable_init
                0x0000000087802a44      0x14c common/built-in.o
                0x0000000087802a44                jumptable_init
 .text.hash_command
                0x0000000087802b90       0x70 common/built-in.o
                0x0000000087802b90                hash_command
 .text.b_reset  0x0000000087802c00        0xe common/built-in.o
 .text.static_get
                0x0000000087802c0e       0x12 common/built-in.o
 .text.file_peek
                0x0000000087802c20        0x6 common/built-in.o
 *fill*         0x0000000087802c26        0x2 
 .text.mapset   0x0000000087802c28       0x14 common/built-in.o
 .text.syntax_err
                0x0000000087802c3c        0xc common/built-in.o
 .text.free_pipe_list
                0x0000000087802c48       0x96 common/built-in.o
 *fill*         0x0000000087802cde        0x2 
 .text.xmalloc  0x0000000087802ce0       0x18 common/built-in.o
 .text.new_pipe
                0x0000000087802cf8       0x16 common/built-in.o
 *fill*         0x0000000087802d0e        0x2 
 .text.xrealloc
                0x0000000087802d10       0x18 common/built-in.o
 .text.done_command
                0x0000000087802d28       0x42 common/built-in.o
 .text.done_pipe
                0x0000000087802d6a       0x2a common/built-in.o
 .text.done_word
                0x0000000087802d94      0x1c4 common/built-in.o
 .text.do_showvar
                0x0000000087802f58       0xa0 common/built-in.o
 .text.is_assignment
                0x0000000087802ff8       0x2c common/built-in.o
 .text.file_get
                0x0000000087803024      0x134 common/built-in.o
 .text.b_addchr
                0x0000000087803158       0x42 common/built-in.o
 *fill*         0x000000008780319a        0x2 
 .text.b_addqchr
                0x000000008780319c       0x30 common/built-in.o
 .text.static_peek
                0x00000000878031cc        0x6 common/built-in.o
 *fill*         0x00000000878031d2        0x2 
 .text.get_local_var
                0x00000000878031d4       0x58 common/built-in.o
                0x00000000878031d4                get_local_var
 .text.set_local_var
                0x000000008780322c      0x10c common/built-in.o
                0x000000008780322c                set_local_var
 .text.insert_var_value_sub
                0x0000000087803338      0x1c0 common/built-in.o
 .text.parse_string_outer
                0x00000000878034f8       0x94 common/built-in.o
                0x00000000878034f8                parse_string_outer
 .text.run_list_real
                0x000000008780358c      0x4d4 common/built-in.o
 .text.parse_stream_outer
                0x0000000087803a60      0x43c common/built-in.o
 .text.parse_file_outer
                0x0000000087803e9c       0x2c common/built-in.o
                0x0000000087803e9c                parse_file_outer
 .text.u_boot_hush_start
                0x0000000087803ec8       0x30 common/built-in.o
                0x0000000087803ec8                u_boot_hush_start
 .text.bootdelay_process
                0x0000000087803ef8       0x94 common/built-in.o
                0x0000000087803ef8                bootdelay_process
 .text.autoboot_command
                0x0000000087803f8c       0x88 common/built-in.o
                0x0000000087803f8c                autoboot_command
 .text.setup_mon_len
                0x0000000087804014       0x18 common/built-in.o
 .text.reserve_round_4k
                0x000000008780402c       0x14 common/built-in.o
 .text.reserve_mmu
                0x0000000087804040       0x2e common/built-in.o
 .text.reserve_uboot
                0x000000008780406e       0x2a common/built-in.o
 .text.reserve_malloc
                0x0000000087804098       0x10 common/built-in.o
 .text.reserve_global_data
                0x00000000878040a8       0x16 common/built-in.o
 .text.reserve_fdt
                0x00000000878040be       0x3a common/built-in.o
 .text.display_new_sp
                0x00000000878040f8        0x4 common/built-in.o
 .text.initf_malloc
                0x00000000878040fc       0x18 common/built-in.o
 .text.reserve_arch
                0x0000000087804114        0x4 common/built-in.o
                0x0000000087804114                reserve_arch
 .text.setup_reloc
                0x0000000087804118       0x1e common/built-in.o
 .text.reloc_fdt
                0x0000000087804136       0x24 common/built-in.o
 *fill*         0x000000008780415a        0x2 
 .text.announce_dram_init
                0x000000008780415c       0x10 common/built-in.o
 .text.init_func_i2c
                0x000000008780416c       0x20 common/built-in.o
 .text.init_baud_rate
                0x000000008780418c       0x1c common/built-in.o
 .text.initf_dm
                0x00000000878041a8        0x6 common/built-in.o
 .text.mark_bootstage
                0x00000000878041ae        0xc common/built-in.o
 .text.reserve_board
                0x00000000878041ba       0x28 common/built-in.o
 .text.display_text_info
                0x00000000878041e2        0x4 common/built-in.o
 .text.setup_fdt
                0x00000000878041e6        0x4 common/built-in.o
 .text.reserve_trace
                0x00000000878041ea        0x4 common/built-in.o
 .text.setup_machine
                0x00000000878041ee        0x4 common/built-in.o
 .text.coloured_LED_init
                0x00000000878041f2        0x2 common/built-in.o
                0x00000000878041f2                coloured_LED_init
 .text.red_led_on
                0x00000000878041f4        0x2 common/built-in.o
                0x00000000878041f4                red_led_on
 .text.board_add_ram_info
                0x00000000878041f6        0x2 common/built-in.o
                0x00000000878041f6                board_add_ram_info
 .text.show_dram_config
                0x00000000878041f8       0x28 common/built-in.o
 .text.dram_init_banksize
                0x0000000087804220       0x18 common/built-in.o
                0x0000000087804220                dram_init_banksize
 .text.setup_dram_config
                0x0000000087804238        0xa common/built-in.o
 .text.board_get_usable_ram_top
                0x0000000087804242       0x10 common/built-in.o
                0x0000000087804242                board_get_usable_ram_top
 .text.setup_dest_addr
                0x0000000087804252       0x30 common/built-in.o
 .text.reserve_stacks
                0x0000000087804282       0x1a common/built-in.o
 .text.board_init_f
                0x000000008780429c       0x20 common/built-in.o
                0x000000008780429c                board_init_f
 .text.bootstage_relocate
                0x00000000878042bc        0x4 common/built-in.o
 .text.initr_reloc_global_data
                0x00000000878042c0       0x1c common/built-in.o
 .text.initr_announce
                0x00000000878042dc        0x4 common/built-in.o
 .text.run_main_loop
                0x00000000878042e0        0x8 common/built-in.o
 .text.initr_net
                0x00000000878042e8       0x18 common/built-in.o
 .text.initr_ethaddr
                0x0000000087804300       0x18 common/built-in.o
 .text.initr_enable_interrupts
                0x0000000087804318        0xa common/built-in.o
 .text.initr_jumptable
                0x0000000087804322        0xa common/built-in.o
 .text.initr_env
                0x000000008780432c       0x20 common/built-in.o
 .text.initr_mmc
                0x000000008780434c       0x18 common/built-in.o
 .text.initr_serial
                0x0000000087804364        0xa common/built-in.o
 .text.initr_dm
                0x000000008780436e       0x12 common/built-in.o
 .text.initr_malloc
                0x0000000087804380       0x16 common/built-in.o
 .text.initr_caches
                0x0000000087804396        0xa common/built-in.o
 .text.initr_reloc
                0x00000000878043a0       0x1c common/built-in.o
 .text.initr_barrier
                0x00000000878043bc        0x4 common/built-in.o
 .text.initr_trace
                0x00000000878043c0        0x4 common/built-in.o
 .text.cpu_secondary_init_r
                0x00000000878043c4        0x2 common/built-in.o
                0x00000000878043c4                cpu_secondary_init_r
 .text.initr_secondary_cpu
                0x00000000878043c6        0xa common/built-in.o
 .text.board_init_r
                0x00000000878043d0       0x10 common/built-in.o
                0x00000000878043d0                board_init_r
 .text.show_board_info
                0x00000000878043e0        0x4 common/built-in.o
                0x00000000878043e0                show_board_info
 .text.do_go_exec
                0x00000000878043e4        0x8 common/built-in.o
                0x00000000878043e4                do_go_exec
 .text.do_go    0x00000000878043ec       0x4c common/built-in.o
 .text.do_bootm
                0x0000000087804438       0xa4 common/built-in.o
                0x0000000087804438                do_bootm
 .text.do_bootd
                0x00000000878044dc       0x18 common/built-in.o
                0x00000000878044dc                do_bootd
 .text.image_info
                0x00000000878044f4       0x8c common/built-in.o
 .text.do_iminfo
                0x0000000087804580       0x40 common/built-in.o
 .text.bootm_maybe_autostart
                0x00000000878045c0       0x4c common/built-in.o
                0x00000000878045c0                bootm_maybe_autostart
 .text.do_bootz
                0x000000008780460c       0x98 common/built-in.o
                0x000000008780460c                do_bootz
 .text.bootm_find_ramdisk_fdt
                0x00000000878046a4       0x6c common/built-in.o
                0x00000000878046a4                bootm_find_ramdisk_fdt
 .text.bootm_decomp_image
                0x0000000087804710       0xe8 common/built-in.o
                0x0000000087804710                bootm_decomp_image
 .text.bootm_disable_interrupts
                0x00000000878047f8       0x10 common/built-in.o
                0x00000000878047f8                bootm_disable_interrupts
 .text.do_bootm_states
                0x0000000087804808      0x500 common/built-in.o
                0x0000000087804808                do_bootm_states
 .text.do_bootm_standalone
                0x0000000087804d08       0x3c common/built-in.o
 .text.do_bootvx_fdt
                0x0000000087804d44       0xb4 common/built-in.o
                0x0000000087804d44                do_bootvx_fdt
 .text.do_bootm_vxworks
                0x0000000087804df8       0x16 common/built-in.o
 .text.boot_selected_os
                0x0000000087804e0e       0x3a common/built-in.o
                0x0000000087804e0e                boot_selected_os
 .text.bootm_os_get_boot_func
                0x0000000087804e48        0xc common/built-in.o
                0x0000000087804e48                bootm_os_get_boot_func
 .text.do_help  0x0000000087804e54       0x2c common/built-in.o
 .text.do_version
                0x0000000087804e80       0x2c common/built-in.o
 .text.env_attr_walk
                0x0000000087804eac       0xba common/built-in.o
                0x0000000087804eac                env_attr_walk
 *fill*         0x0000000087804f66        0x2 
 .text.env_attr_lookup
                0x0000000087804f68       0xf0 common/built-in.o
                0x0000000087804f68                env_attr_lookup
 .text.clear_callback
                0x0000000087805058        0x8 common/built-in.o
 .text.find_env_callback
                0x0000000087805060       0x3c common/built-in.o
 .text.on_callbacks
                0x000000008780509c       0x34 common/built-in.o
 .text.set_callback
                0x00000000878050d0       0x50 common/built-in.o
 .text.env_callback_init
                0x0000000087805120       0x78 common/built-in.o
                0x0000000087805120                env_callback_init
 .text.skip_num
                0x0000000087805198       0x44 common/built-in.o
 .text.clear_flags
                0x00000000878051dc        0x8 common/built-in.o
 .text.on_flags
                0x00000000878051e4       0x34 common/built-in.o
 .text.env_flags_parse_vartype
                0x0000000087805218       0x30 common/built-in.o
                0x0000000087805218                env_flags_parse_vartype
 .text.env_flags_parse_varaccess
                0x0000000087805248       0x38 common/built-in.o
                0x0000000087805248                env_flags_parse_varaccess
 .text.set_flags
                0x0000000087805280       0x64 common/built-in.o
 .text.env_flags_init
                0x00000000878052e4       0x90 common/built-in.o
                0x00000000878052e4                env_flags_init
 .text.env_flags_validate
                0x0000000087805374      0x204 common/built-in.o
                0x0000000087805374                env_flags_validate
 .text.mmc_get_env_addr
                0x0000000087805578        0xa common/built-in.o
                0x0000000087805578                mmc_get_env_addr
 *fill*         0x0000000087805582        0x2 
 .text.env_init
                0x0000000087805584       0x14 common/built-in.o
                0x0000000087805584                env_init
 .text.mmc_get_env_part
                0x0000000087805598        0x4 common/built-in.o
                0x0000000087805598                mmc_get_env_part
 .text.init_mmc_for_env
                0x000000008780559c       0x54 common/built-in.o
 .text.fini_mmc_for_env
                0x00000000878055f0       0x24 common/built-in.o
 .text.saveenv  0x0000000087805614       0xbc common/built-in.o
                0x0000000087805614                saveenv
 .text.env_relocate_spec
                0x00000000878056d0       0x9c common/built-in.o
                0x00000000878056d0                env_relocate_spec
 .text.source   0x000000008780576c       0x90 common/built-in.o
                0x000000008780576c                source
 .text.do_source
                0x00000000878057fc       0x34 common/built-in.o
 .text.print_num
                0x0000000087805830       0x10 common/built-in.o
 .text.do_bdinfo
                0x0000000087805840      0x124 common/built-in.o
 .text.parse_argv
                0x0000000087805964       0x3c common/built-in.o
 .text.do_icache
                0x00000000878059a0       0x5c common/built-in.o
 .text.do_dcache
                0x00000000878059fc       0x5c common/built-in.o
 .text.do_coninfo
                0x0000000087805a58       0x90 common/built-in.o
 .text.do_echo  0x0000000087805ae8       0x74 common/built-in.o
 .text.do_exit  0x0000000087805b5c       0x20 common/built-in.o
 .text.do_ext2load
                0x0000000087805b7c        0xe common/built-in.o
                0x0000000087805b7c                do_ext2load
 .text.do_ext2ls
                0x0000000087805b8a        0xe common/built-in.o
 .text.do_fat_size
                0x0000000087805b98        0xe common/built-in.o
                0x0000000087805b98                do_fat_size
 .text.do_fat_fsload
                0x0000000087805ba6        0xe common/built-in.o
                0x0000000087805ba6                do_fat_fsload
 .text.do_fat_ls
                0x0000000087805bb4        0xe common/built-in.o
 *fill*         0x0000000087805bc2        0x2 
 .text.do_fat_fsinfo
                0x0000000087805bc4       0x58 common/built-in.o
 .text.fdt_valid
                0x0000000087805c1c       0x74 common/built-in.o
 .text.is_printable_string
                0x0000000087805c90       0x50 common/built-in.o
 .text.print_data
                0x0000000087805ce0      0x108 common/built-in.o
 .text.set_working_fdt_addr
                0x0000000087805de8       0x14 common/built-in.o
                0x0000000087805de8                set_working_fdt_addr
 .text.do_fdt   0x0000000087805dfc      0x964 common/built-in.o
 .text.fdt_find_and_setprop
                0x0000000087806760       0x48 common/built-in.o
                0x0000000087806760                fdt_find_and_setprop
 .text.fdt_find_or_add_subnode
                0x00000000878067a8       0x40 common/built-in.o
                0x00000000878067a8                fdt_find_or_add_subnode
 .text.fdt_initrd
                0x00000000878067e8      0x12c common/built-in.o
                0x00000000878067e8                fdt_initrd
 .text.fdt_chosen
                0x0000000087806914       0x6c common/built-in.o
                0x0000000087806914                fdt_chosen
 .text.do_fixup_by_path
                0x0000000087806980       0x34 common/built-in.o
                0x0000000087806980                do_fixup_by_path
 .text.fdt_fixup_memory_banks
                0x00000000878069b4      0x124 common/built-in.o
                0x00000000878069b4                fdt_fixup_memory_banks
 .text.fdt_fixup_memory
                0x0000000087806ad8       0x16 common/built-in.o
                0x0000000087806ad8                fdt_fixup_memory
 *fill*         0x0000000087806aee        0x2 
 .text.fdt_fixup_ethernet
                0x0000000087806af0       0xe4 common/built-in.o
                0x0000000087806af0                fdt_fixup_ethernet
 .text.fdt_shrink_to_minimum
                0x0000000087806bd4       0x84 common/built-in.o
                0x0000000087806bd4                fdt_shrink_to_minimum
 .text.do_flerase
                0x0000000087806c58        0x4 common/built-in.o
 .text.do_protect
                0x0000000087806c5c        0xc common/built-in.o
 .text.do_flinfo
                0x0000000087806c68        0x4 common/built-in.o
 .text.strtou32
                0x0000000087806c6c       0x2c common/built-in.o
 .text.do_fuse  0x0000000087806c98      0x23c common/built-in.o
 .text.do_i2c   0x0000000087806ed4       0x3c common/built-in.o
 .text.do_i2c_reset
                0x0000000087806f10       0x20 common/built-in.o
 .text.do_i2c_probe
                0x0000000087806f30       0x5c common/built-in.o
 .text.do_i2c_bus_speed
                0x0000000087806f8c       0x4c common/built-in.o
 .text.do_i2c_show_bus
                0x0000000087806fd8       0x8c common/built-in.o
 .text.do_i2c_bus_num
                0x0000000087807064       0x7c common/built-in.o
 .text.get_alen.constprop.7
                0x00000000878070e0       0x1c common/built-in.o
 .text.do_i2c_crc
                0x00000000878070fc       0xb8 common/built-in.o
 .text.mod_i2c_mem.isra.4
                0x00000000878071b4      0x148 common/built-in.o
 .text.do_i2c_nm
                0x00000000878072fc        0x6 common/built-in.o
 .text.do_i2c_mm
                0x0000000087807302        0x6 common/built-in.o
 .text.do_i2c_md
                0x0000000087807308      0x13c common/built-in.o
 .text.do_i2c_read
                0x0000000087807444       0x78 common/built-in.o
 .text.do_i2c_mw
                0x00000000878074bc       0xa4 common/built-in.o
 .text.do_i2c_write
                0x0000000087807560       0xdc common/built-in.o
 .text.do_i2c_loop
                0x000000008780763c       0x9c common/built-in.o
 .text.i2c_init_board
                0x00000000878076d8        0x2 common/built-in.o
                0x00000000878076d8                i2c_init_board
 .text.evalexp  0x00000000878076da       0x44 common/built-in.o
 .text.evalstr  0x000000008780771e       0x3c common/built-in.o
 *fill*         0x000000008780775a        0x2 
 .text.binary_test
                0x000000008780775c      0x128 common/built-in.o
 .text.do_itest
                0x0000000087807884       0x4c common/built-in.o
 .text.bin_data_init
                0x00000000878078d0       0x1c common/built-in.o
 .text.k_data_save
                0x00000000878078ec       0x34 common/built-in.o
 .text.k_data_restore
                0x0000000087807920       0x34 common/built-in.o
 .text.getcxmodem
                0x0000000087807954       0x16 common/built-in.o
 *fill*         0x000000008780796a        0x2 
 .text.load_serial_ymodem
                0x000000008780796c       0x88 common/built-in.o
 .text.bin_data_char
                0x00000000878079f4       0x1c common/built-in.o
 .text.chk1.constprop.1
                0x0000000087807a10       0x20 common/built-in.o
 .text.s1_sendpacket.constprop.2
                0x0000000087807a30       0x34 common/built-in.o
 .text.load_serial
                0x0000000087807a64      0x134 common/built-in.o
 .text.do_load_serial
                0x0000000087807b98       0x90 common/built-in.o
 .text.do_load_serial_bin
                0x0000000087807c28      0x52c common/built-in.o
 .text.do_mem_mw
                0x0000000087808154       0x80 common/built-in.o
 .text.do_mem_loop
                0x00000000878081d4       0x82 common/built-in.o
 *fill*         0x0000000087808256        0x2 
 .text.do_mem_md
                0x0000000087808258       0xa0 common/built-in.o
 .text.do_mem_cmp
                0x00000000878082f8       0xf0 common/built-in.o
 .text.do_mem_base
                0x00000000878083e8       0x28 common/built-in.o
 .text.do_mem_cp
                0x0000000087808410       0x84 common/built-in.o
 .text.do_mem_crc
                0x0000000087808494       0x2c common/built-in.o
 .text.do_mem_mtest
                0x00000000878084c0      0x150 common/built-in.o
 .text.mod_mem.isra.0
                0x0000000087808610       0xf4 common/built-in.o
 .text.do_mem_mm
                0x0000000087808704        0x6 common/built-in.o
 .text.do_mem_nm
                0x000000008780870a        0x6 common/built-in.o
 .text.miiphy_get_dev_by_name
                0x0000000087808710       0x38 common/built-in.o
                0x0000000087808710                miiphy_get_dev_by_name
 .text.miiphy_init
                0x0000000087808748       0x18 common/built-in.o
                0x0000000087808748                miiphy_init
 .text.mdio_alloc
                0x0000000087808760       0x1c common/built-in.o
                0x0000000087808760                mdio_alloc
 .text.mdio_register
                0x000000008780877c       0x50 common/built-in.o
                0x000000008780877c                mdio_register
 .text.mdio_list_devices
                0x00000000878087cc       0x74 common/built-in.o
                0x00000000878087cc                mdio_list_devices
 .text.miiphy_set_current_dev
                0x0000000087808840       0x28 common/built-in.o
                0x0000000087808840                miiphy_set_current_dev
 .text.miiphy_get_active_dev
                0x0000000087808868       0x30 common/built-in.o
 .text.mdio_get_current_dev
                0x0000000087808898        0xc common/built-in.o
                0x0000000087808898                mdio_get_current_dev
 .text.mdio_phydev_for_ethname
                0x00000000878088a4       0x54 common/built-in.o
                0x00000000878088a4                mdio_phydev_for_ethname
 .text.miiphy_get_current_dev
                0x00000000878088f8       0x10 common/built-in.o
                0x00000000878088f8                miiphy_get_current_dev
 .text.miiphy_read
                0x0000000087808908       0x28 common/built-in.o
                0x0000000087808908                miiphy_read
 .text.miiphy_write
                0x0000000087808930       0x24 common/built-in.o
                0x0000000087808930                miiphy_write
 .text.miiphy_listdev
                0x0000000087808954       0x54 common/built-in.o
                0x0000000087808954                miiphy_listdev
 .text.miiphy_info
                0x00000000878089a8       0x5c common/built-in.o
                0x00000000878089a8                miiphy_info
 .text.miiphy_speed
                0x0000000087808a04       0x60 common/built-in.o
                0x0000000087808a04                miiphy_speed
 .text.miiphy_duplex
                0x0000000087808a64       0x60 common/built-in.o
                0x0000000087808a64                miiphy_duplex
 .text.miiphy_is_1000base_x
                0x0000000087808ac4        0x4 common/built-in.o
                0x0000000087808ac4                miiphy_is_1000base_x
 .text.extract_range
                0x0000000087808ac8       0x7c common/built-in.o
 .text.do_mii   0x0000000087808b44      0x544 common/built-in.o
 .text.do_mdio  0x0000000087809088      0x320 common/built-in.o
 .text.do_sleep
                0x00000000878093a8       0x46 common/built-in.o
 *fill*         0x00000000878093ee        0x2 
 .text.do_mmcops
                0x00000000878093f0       0x7c common/built-in.o
 .text.init_mmc_device
                0x000000008780946c       0x34 common/built-in.o
 .text.do_mmc_rescan
                0x00000000878094a0       0x18 common/built-in.o
 .text.do_mmc_hwpartition
                0x00000000878094b8      0x3a4 common/built-in.o
 .text.do_mmc_list
                0x000000008780985c        0xc common/built-in.o
 .text.do_mmc_dev
                0x0000000087809868       0xc4 common/built-in.o
 .text.do_mmc_part
                0x000000008780992c       0x38 common/built-in.o
 .text.do_mmc_erase
                0x0000000087809964       0xa0 common/built-in.o
 .text.do_mmc_write
                0x0000000087809a04       0xac common/built-in.o
 .text.do_mmc_read
                0x0000000087809ab0       0xa0 common/built-in.o
 .text.do_mmcinfo
                0x0000000087809b50      0x294 common/built-in.o
 .text.do_mmc_setdsr
                0x0000000087809de4       0x74 common/built-in.o
 .text.cpu_cmd  0x0000000087809e58       0xb0 common/built-in.o
 .text.netboot_common
                0x0000000087809f08      0x1ac common/built-in.o
 .text.do_bootp
                0x000000008780a0b4        0x8 common/built-in.o
 .text.do_dhcp  0x000000008780a0bc        0x8 common/built-in.o
 .text.do_nfs   0x000000008780a0c4        0x8 common/built-in.o
 .text.do_tftpb
                0x000000008780a0cc       0x26 common/built-in.o
                0x000000008780a0cc                do_tftpb
 *fill*         0x000000008780a0f2        0x2 
 .text.do_ping  0x000000008780a0f4       0x48 common/built-in.o
 .text.bytes_per_second
                0x000000008780a13c       0x38 common/built-in.o
 .text.do_spi_flash
                0x000000008780a174      0x474 common/built-in.o
 .text.get_arg  0x000000008780a5e8       0x32 common/built-in.o
 *fill*         0x000000008780a61a        0x2 
 .text.do_setexpr
                0x000000008780a61c       0xb4 common/built-in.o
 .text.do_time  0x000000008780a6d0       0x94 common/built-in.o
 .text.do_false
                0x000000008780a764        0x4 common/built-in.o
 .text.do_true  0x000000008780a768        0x4 common/built-in.o
 .text.do_test  0x000000008780a76c      0x200 common/built-in.o
 .text.usb_get_class_desc
                0x000000008780a96c       0x74 common/built-in.o
 .text.usb_display_class_sub
                0x000000008780a9e0       0xf4 common/built-in.o
 .text.usb_find_device
                0x000000008780aad4       0x1e common/built-in.o
 *fill*         0x000000008780aaf2        0x2 
 .text.usb_show_tree_graph
                0x000000008780aaf4      0x178 common/built-in.o
 .text.usb_display_string
                0x000000008780ac6c       0x2c common/built-in.o
 .text.usb_display_config
                0x000000008780ac98      0x1a8 common/built-in.o
 .text.do_usbboot
                0x000000008780ae40        0xc common/built-in.o
 .text.do_usb_start
                0x000000008780ae4c       0x2c common/built-in.o
 .text.usb_display_desc.part.2
                0x000000008780ae78       0xd0 common/built-in.o
 .text.do_usb   0x000000008780af48      0x4e8 common/built-in.o
 .text.usb_set_maxpacket_ep
                0x000000008780b430       0x54 common/built-in.o
 .text.usb_stop
                0x000000008780b484       0x48 common/built-in.o
                0x000000008780b484                usb_stop
 .text.usb_disable_asynch
                0x000000008780b4cc       0x14 common/built-in.o
                0x000000008780b4cc                usb_disable_asynch
 .text.usb_control_msg
                0x000000008780b4e0       0x78 common/built-in.o
                0x000000008780b4e0                usb_control_msg
 .text.usb_get_descriptor
                0x000000008780b558       0x38 common/built-in.o
 .text.usb_get_string
                0x000000008780b590       0x50 common/built-in.o
 .text.usb_string_sub
                0x000000008780b5e0       0x94 common/built-in.o
 .text.usb_bulk_msg
                0x000000008780b674       0x48 common/built-in.o
                0x000000008780b674                usb_bulk_msg
 .text.usb_maxpacket
                0x000000008780b6bc       0x1a common/built-in.o
                0x000000008780b6bc                usb_maxpacket
 .text.usb_clear_halt
                0x000000008780b6d6       0x5c common/built-in.o
                0x000000008780b6d6                usb_clear_halt
 *fill*         0x000000008780b732        0x2 
 .text.usb_get_configuration_no
                0x000000008780b734       0x78 common/built-in.o
                0x000000008780b734                usb_get_configuration_no
 .text.usb_set_interface
                0x000000008780b7ac       0x6c common/built-in.o
                0x000000008780b7ac                usb_set_interface
 .text.usb_string
                0x000000008780b818       0x9c common/built-in.o
                0x000000008780b818                usb_string
 .text.usb_get_dev_index
                0x000000008780b8b4       0x18 common/built-in.o
                0x000000008780b8b4                usb_get_dev_index
 .text.usb_alloc_new_device
                0x000000008780b8cc       0x5c common/built-in.o
                0x000000008780b8cc                usb_alloc_new_device
 .text.usb_free_device
                0x000000008780b928       0x30 common/built-in.o
                0x000000008780b928                usb_free_device
 .text.usb_alloc_device
                0x000000008780b958        0x4 common/built-in.o
                0x000000008780b958                usb_alloc_device
 .text.usb_new_device
                0x000000008780b95c      0x3fc common/built-in.o
                0x000000008780b95c                usb_new_device
 .text.usb_init
                0x000000008780bd58       0xec common/built-in.o
                0x000000008780bd58                usb_init
 .text.usb_set_port_feature
                0x000000008780be44       0x2e common/built-in.o
 .text.usb_hub_power_on
                0x000000008780be72       0x2e common/built-in.o
 .text.usb_get_port_status
                0x000000008780bea0       0x30 common/built-in.o
 .text.usb_clear_port_feature
                0x000000008780bed0       0x2e common/built-in.o
 .text.usb_get_hub_descriptor
                0x000000008780befe       0x34 common/built-in.o
 .text.usb_hub_reset_devices
                0x000000008780bf32        0x2 common/built-in.o
                0x000000008780bf32                usb_hub_reset_devices
 .text.usb_hub_reset
                0x000000008780bf34        0xc common/built-in.o
                0x000000008780bf34                usb_hub_reset
 .text.hub_port_reset
                0x000000008780bf40       0x66 common/built-in.o
                0x000000008780bf40                hub_port_reset
 *fill*         0x000000008780bfa6        0x2 
 .text.usb_hub_port_connect_change
                0x000000008780bfa8       0xd0 common/built-in.o
                0x000000008780bfa8                usb_hub_port_connect_change
 .text.usb_hub_configure
                0x000000008780c078      0x1e4 common/built-in.o
 .text.usb_hub_probe
                0x000000008780c25c       0x3a common/built-in.o
                0x000000008780c25c                usb_hub_probe
 .text.usb_stor_irq
                0x000000008780c296       0x10 common/built-in.o
 .text.usb_stor_BBB_reset
                0x000000008780c2a6       0x8e common/built-in.o
 .text.usb_stor_CB_reset
                0x000000008780c334       0x88 common/built-in.o
 .text.usb_stor_BBB_clear_endpt_stall.isra.2
                0x000000008780c3bc       0x2c common/built-in.o
 .text.usb_stor_BBB_transport
                0x000000008780c3e8      0x19c common/built-in.o
 .text.usb_stor_CB_comdat
                0x000000008780c584      0x154 common/built-in.o
 .text.usb_stor_CBI_get_status.isra.4
                0x000000008780c6d8       0x7c common/built-in.o
 .text.usb_stor_CB_transport
                0x000000008780c754      0x158 common/built-in.o
 .text.usb_request_sense.constprop.10
                0x000000008780c8ac       0x44 common/built-in.o
 .text.usb_stor_write
                0x000000008780c8f0      0x114 common/built-in.o
                0x000000008780c8f0                usb_stor_write
 .text.usb_stor_read
                0x000000008780ca04      0x114 common/built-in.o
                0x000000008780ca04                usb_stor_read
 .text.usb_stor_get_dev
                0x000000008780cb18       0x1c common/built-in.o
                0x000000008780cb18                usb_stor_get_dev
 .text.usb_stor_info
                0x000000008780cb34       0x4c common/built-in.o
                0x000000008780cb34                usb_stor_info
 .text.usb_storage_probe
                0x000000008780cb80      0x15c common/built-in.o
                0x000000008780cb80                usb_storage_probe
 .text.usb_stor_get_info
                0x000000008780ccdc      0x22c common/built-in.o
                0x000000008780ccdc                usb_stor_get_info
 .text.usb_stor_scan
                0x000000008780cf08      0x148 common/built-in.o
                0x000000008780cf08                usb_stor_scan
 .text.do_imgextract
                0x000000008780d050      0x1b8 common/built-in.o
 .text.do_env_delete
                0x000000008780d208       0x6c common/built-in.o
 .text.do_env_exists
                0x000000008780d274       0x40 common/built-in.o
 .text.do_env_save
                0x000000008780d2b4       0x20 common/built-in.o
 .text.do_env   0x000000008780d2d4       0x3c common/built-in.o
 .text.env_print
                0x000000008780d310       0x74 common/built-in.o
 .text.do_env_print
                0x000000008780d384       0x80 common/built-in.o
 .text.do_env_import
                0x000000008780d404      0x190 common/built-in.o
 .text.do_env_default
                0x000000008780d594       0x54 common/built-in.o
 .text._do_env_set.isra.0
                0x000000008780d5e8      0x128 common/built-in.o
 .text.do_env_set
                0x000000008780d710       0x12 common/built-in.o
 *fill*         0x000000008780d722        0x2 
 .text.get_env_id
                0x000000008780d724        0xc common/built-in.o
                0x000000008780d724                get_env_id
 .text.setenv   0x000000008780d730       0x38 common/built-in.o
                0x000000008780d730                setenv
 .text.setenv_ulong
                0x000000008780d768       0x16 common/built-in.o
                0x000000008780d768                setenv_ulong
 *fill*         0x000000008780d77e        0x2 
 .text.setenv_hex
                0x000000008780d780       0x20 common/built-in.o
                0x000000008780d780                setenv_hex
 .text.do_env_export
                0x000000008780d7a0      0x16c common/built-in.o
 .text.envmatch
                0x000000008780d90c       0x3c common/built-in.o
                0x000000008780d90c                envmatch
 .text.getenv_f
                0x000000008780d948       0x7c common/built-in.o
                0x000000008780d948                getenv_f
 .text.getenv   0x000000008780d9c4       0x50 common/built-in.o
                0x000000008780d9c4                getenv
 .text.getenv_hex
                0x000000008780da14       0x22 common/built-in.o
                0x000000008780da14                getenv_hex
 .text.getenv_ulong
                0x000000008780da36       0x1c common/built-in.o
                0x000000008780da36                getenv_ulong
 *fill*         0x000000008780da52        0x2 
 .text.do_env_edit
                0x000000008780da54       0x54 common/built-in.o
 .text.env_get_char_spec
                0x000000008780daa8        0x8 common/built-in.o
                0x000000008780daa8                env_get_char_spec
 .text.env_get_addr
                0x000000008780dab0       0x18 common/built-in.o
                0x000000008780dab0                env_get_addr
 .text.env_get_char_memory
                0x000000008780dac8        0xa common/built-in.o
                0x000000008780dac8                env_get_char_memory
 *fill*         0x000000008780dad2        0x2 
 .text.env_get_char
                0x000000008780dad4       0x20 common/built-in.o
                0x000000008780dad4                env_get_char
 .text.getenv_yesno
                0x000000008780daf4       0x2a common/built-in.o
                0x000000008780daf4                getenv_yesno
 .text.getenv_default
                0x000000008780db1e       0x2a common/built-in.o
                0x000000008780db1e                getenv_default
 .text.set_default_env
                0x000000008780db48       0x80 common/built-in.o
                0x000000008780db48                set_default_env
 .text.set_default_vars
                0x000000008780dbc8       0x28 common/built-in.o
                0x000000008780dbc8                set_default_vars
 .text.env_import
                0x000000008780dbf0       0x94 common/built-in.o
                0x000000008780dbf0                env_import
 .text.env_export
                0x000000008780dc84       0x64 common/built-in.o
                0x000000008780dc84                env_export
 .text.env_relocate
                0x000000008780dce8       0x28 common/built-in.o
                0x000000008780dce8                env_relocate
 .text.env_complete
                0x000000008780dd10       0x90 common/built-in.o
                0x000000008780dd10                env_complete
 .text.console_setfile
                0x000000008780dda0       0x74 common/built-in.o
 .text.putc     0x000000008780de14       0x24 common/built-in.o
                0x000000008780de14                putc
 .text.puts     0x000000008780de38       0x24 common/built-in.o
                0x000000008780de38                puts
 .text.printf   0x000000008780de5c       0x34 common/built-in.o
                0x000000008780de5c                printf
 .text.fgetc    0x000000008780de90       0x18 common/built-in.o
                0x000000008780de90                fgetc
 .text.getc     0x000000008780dea8       0x1a common/built-in.o
                0x000000008780dea8                getc
 *fill*         0x000000008780dec2        0x2 
 .text.ftstc    0x000000008780dec4       0x18 common/built-in.o
                0x000000008780dec4                ftstc
 .text.tstc     0x000000008780dedc       0x1a common/built-in.o
                0x000000008780dedc                tstc
 .text.vprintf  0x000000008780def6       0x20 common/built-in.o
                0x000000008780def6                vprintf
 *fill*         0x000000008780df16        0x2 
 .text.ctrlc    0x000000008780df18       0x38 common/built-in.o
                0x000000008780df18                ctrlc
 .text.confirm_yesno
                0x000000008780df50       0x84 common/built-in.o
                0x000000008780df50                confirm_yesno
 .text.had_ctrlc
                0x000000008780dfd4        0xc common/built-in.o
                0x000000008780dfd4                had_ctrlc
 .text.clear_ctrlc
                0x000000008780dfe0        0xc common/built-in.o
                0x000000008780dfe0                clear_ctrlc
 .text.search_device
                0x000000008780dfec       0x16 common/built-in.o
                0x000000008780dfec                search_device
 .text.console_assign
                0x000000008780e002       0x2a common/built-in.o
                0x000000008780e002                console_assign
 .text.on_console
                0x000000008780e02c       0x70 common/built-in.o
 .text.console_init_f
                0x000000008780e09c        0xa common/built-in.o
                0x000000008780e09c                console_init_f
 *fill*         0x000000008780e0a6        0x2 
 .text.stdio_print_current_devices
                0x000000008780e0a8       0x78 common/built-in.o
                0x000000008780e0a8                stdio_print_current_devices
 .text.console_init_r
                0x000000008780e120       0x8c common/built-in.o
                0x000000008780e120                console_init_r
 .text.sbrk     0x000000008780e1ac       0x44 common/built-in.o
                0x000000008780e1ac                sbrk
 .text.mem_malloc_init
                0x000000008780e1f0       0x28 common/built-in.o
                0x000000008780e1f0                mem_malloc_init
 .text.malloc_trim
                0x000000008780e218       0x80 common/built-in.o
                0x000000008780e218                malloc_trim
 .text.free     0x000000008780e298      0x168 common/built-in.o
                0x000000008780e298                free
 .text.malloc   0x000000008780e400      0x404 common/built-in.o
                0x000000008780e400                malloc
 .text.calloc   0x000000008780e804       0xbc common/built-in.o
                0x000000008780e804                calloc
 .text.realloc  0x000000008780e8c0      0x344 common/built-in.o
                0x000000008780e8c0                realloc
 .text.memalign
                0x000000008780ec04       0xc2 common/built-in.o
                0x000000008780ec04                memalign
 .text.malloc_simple
                0x000000008780ecc6       0x28 common/built-in.o
                0x000000008780ecc6                malloc_simple
 *fill*         0x000000008780ecee        0x2 
 .text.on_loadaddr
                0x000000008780ecf0       0x20 common/built-in.o
 .text.image_check_hcrc
                0x000000008780ed10       0x2a common/built-in.o
                0x000000008780ed10                image_check_hcrc
 .text.image_check_dcrc
                0x000000008780ed3a       0x22 common/built-in.o
                0x000000008780ed3a                image_check_dcrc
 .text.image_multi_count
                0x000000008780ed5c       0x12 common/built-in.o
                0x000000008780ed5c                image_multi_count
 .text.image_multi_getimg
                0x000000008780ed6e       0x50 common/built-in.o
                0x000000008780ed6e                image_multi_getimg
 *fill*         0x000000008780edbe        0x2 
 .text.getenv_bootm_low
                0x000000008780edc0       0x20 common/built-in.o
                0x000000008780edc0                getenv_bootm_low
 .text.getenv_bootm_size
                0x000000008780ede0       0x3c common/built-in.o
                0x000000008780ede0                getenv_bootm_size
 .text.getenv_bootm_mapsize
                0x000000008780ee1c       0x20 common/built-in.o
                0x000000008780ee1c                getenv_bootm_mapsize
 .text.memmove_wd
                0x000000008780ee3c        0xa common/built-in.o
                0x000000008780ee3c                memmove_wd
 *fill*         0x000000008780ee46        0x2 
 .text.genimg_print_size
                0x000000008780ee48       0x24 common/built-in.o
                0x000000008780ee48                genimg_print_size
 .text.get_table_entry_name
                0x000000008780ee6c       0x16 common/built-in.o
                0x000000008780ee6c                get_table_entry_name
 *fill*         0x000000008780ee82        0x2 
 .text.genimg_get_os_name
                0x000000008780ee84       0x14 common/built-in.o
                0x000000008780ee84                genimg_get_os_name
 .text.genimg_get_arch_name
                0x000000008780ee98       0x14 common/built-in.o
                0x000000008780ee98                genimg_get_arch_name
 .text.genimg_get_type_name
                0x000000008780eeac       0x14 common/built-in.o
                0x000000008780eeac                genimg_get_type_name
 .text.genimg_get_comp_name
                0x000000008780eec0       0x14 common/built-in.o
                0x000000008780eec0                genimg_get_comp_name
 .text.image_print_contents
                0x000000008780eed4       0xf8 common/built-in.o
                0x000000008780eed4                image_print_contents
 .text.genimg_get_kernel_addr_fit
                0x000000008780efcc       0x14 common/built-in.o
                0x000000008780efcc                genimg_get_kernel_addr_fit
 .text.genimg_get_format
                0x000000008780efe0       0x20 common/built-in.o
                0x000000008780efe0                genimg_get_format
 .text.genimg_get_image
                0x000000008780f000        0x2 common/built-in.o
                0x000000008780f000                genimg_get_image
 .text.genimg_has_config
                0x000000008780f002        0x4 common/built-in.o
                0x000000008780f002                genimg_has_config
 *fill*         0x000000008780f006        0x2 
 .text.boot_get_ramdisk
                0x000000008780f008      0x174 common/built-in.o
                0x000000008780f008                boot_get_ramdisk
 .text.boot_ramdisk_high
                0x000000008780f17c       0xc8 common/built-in.o
                0x000000008780f17c                boot_ramdisk_high
 .text.boot_get_setup
                0x000000008780f244        0x6 common/built-in.o
                0x000000008780f244                boot_get_setup
 .text.image_setup_linux
                0x000000008780f24a       0x52 common/built-in.o
                0x000000008780f24a                image_setup_linux
 .text.fdt_error
                0x000000008780f29c       0x24 common/built-in.o
 .text.boot_fdt_add_mem_rsv_regions
                0x000000008780f2c0       0x5c common/built-in.o
                0x000000008780f2c0                boot_fdt_add_mem_rsv_regions
 .text.boot_relocate_fdt
                0x000000008780f31c      0x10c common/built-in.o
                0x000000008780f31c                boot_relocate_fdt
 .text.boot_get_fdt
                0x000000008780f428      0x1a8 common/built-in.o
                0x000000008780f428                boot_get_fdt
 .text.ft_verify_fdt
                0x000000008780f5d0        0x4 common/built-in.o
                0x000000008780f5d0                ft_verify_fdt
 .text.image_setup_libfdt
                0x000000008780f5d4       0x90 common/built-in.o
                0x000000008780f5d4                image_setup_libfdt
 .text.get_effective_memsize
                0x000000008780f664        0x6 common/built-in.o
                0x000000008780f664                get_effective_memsize
 .text.stdio_serial_tstc
                0x000000008780f66a        0x4 common/built-in.o
 .text.stdio_serial_getc
                0x000000008780f66e        0x4 common/built-in.o
 .text.stdio_serial_puts
                0x000000008780f672        0x6 common/built-in.o
 .text.stdio_serial_putc
                0x000000008780f678        0x6 common/built-in.o
 *fill*         0x000000008780f67e        0x2 
 .text.stdio_get_list
                0x000000008780f680        0x8 common/built-in.o
                0x000000008780f680                stdio_get_list
 .text.stdio_get_by_name
                0x000000008780f688       0x30 common/built-in.o
                0x000000008780f688                stdio_get_by_name
 .text.stdio_clone
                0x000000008780f6b8       0x22 common/built-in.o
                0x000000008780f6b8                stdio_clone
 *fill*         0x000000008780f6da        0x2 
 .text.stdio_register_dev
                0x000000008780f6dc       0x30 common/built-in.o
                0x000000008780f6dc                stdio_register_dev
 .text.stdio_register
                0x000000008780f70c        0x6 common/built-in.o
                0x000000008780f70c                stdio_register
 *fill*         0x000000008780f712        0x2 
 .text.stdio_init_tables
                0x000000008780f714       0x14 common/built-in.o
                0x000000008780f714                stdio_init_tables
 .text.stdio_add_devices
                0x000000008780f728       0x58 common/built-in.o
                0x000000008780f728                stdio_add_devices
 .text.run_command
                0x000000008780f780        0xe common/built-in.o
                0x000000008780f780                run_command
 .text.run_command_list
                0x000000008780f78e       0x38 common/built-in.o
                0x000000008780f78e                run_command_list
 *fill*         0x000000008780f7c6        0x2 
 .text.do_run   0x000000008780f7c8       0x50 common/built-in.o
                0x000000008780f7c8                do_run
 .text.cli_loop
                0x000000008780f818        0x8 common/built-in.o
                0x000000008780f818                cli_loop
 .text.cli_init
                0x000000008780f820        0x4 common/built-in.o
                0x000000008780f820                cli_init
 .text.delete_char.part.0
                0x000000008780f824       0x88 common/built-in.o
 .text.cread_add_char
                0x000000008780f8ac       0x80 common/built-in.o
 .text.cli_readline_into_buffer
                0x000000008780f92c      0x624 common/built-in.o
                0x000000008780f92c                cli_readline_into_buffer
 .text.cli_readline
                0x000000008780ff50       0x10 common/built-in.o
                0x000000008780ff50                cli_readline
 .text.find_cmd_tbl
                0x000000008780ff60       0x64 common/built-in.o
                0x000000008780ff60                find_cmd_tbl
 .text.find_cmd
                0x000000008780ffc4       0x1c common/built-in.o
                0x000000008780ffc4                find_cmd
 .text.cmd_usage
                0x000000008780ffe0       0x3c common/built-in.o
                0x000000008780ffe0                cmd_usage
 .text._do_help
                0x000000008781001c      0x104 common/built-in.o
                0x000000008781001c                _do_help
 .text.var_complete
                0x0000000087810120       0x48 common/built-in.o
                0x0000000087810120                var_complete
 .text.cmd_auto_complete
                0x0000000087810168      0x2fc common/built-in.o
                0x0000000087810168                cmd_auto_complete
 .text.cmd_get_data_size
                0x0000000087810464       0x38 common/built-in.o
                0x0000000087810464                cmd_get_data_size
 .text.cmd_process
                0x000000008781049c       0x94 common/built-in.o
                0x000000008781049c                cmd_process
 .text.cmd_process_error
                0x0000000087810530       0x1c common/built-in.o
                0x0000000087810530                cmd_process_error
 .text.hex1_bin
                0x000000008781054c       0x2a common/built-in.o
 .text.hex2_bin
                0x0000000087810576       0x24 common/built-in.o
 .text.srec_decode
                0x000000008781059a      0x184 common/built-in.o
                0x000000008781059a                srec_decode
 *fill*         0x000000008781071e        0x2 
 .text.CYGACC_COMM_IF_GETC_TIMEOUT.isra.0
                0x0000000087810720       0x2c common/built-in.o
 .text.xyzModem_flush
                0x000000008781074c       0x14 common/built-in.o
 .text.xyzModem_get_hdr
                0x0000000087810760      0x16c common/built-in.o
 .text.xyzModem_stream_open
                0x00000000878108cc      0x17c common/built-in.o
                0x00000000878108cc                xyzModem_stream_open
 .text.xyzModem_stream_read
                0x0000000087810a48      0x1c0 common/built-in.o
                0x0000000087810a48                xyzModem_stream_read
 .text.xyzModem_stream_close
                0x0000000087810c08       0x40 common/built-in.o
                0x0000000087810c08                xyzModem_stream_close
 .text.xyzModem_stream_terminate
                0x0000000087810c48       0x68 common/built-in.o
                0x0000000087810c48                xyzModem_stream_terminate
 .text.xyzModem_error
                0x0000000087810cb0       0x18 common/built-in.o
                0x0000000087810cb0                xyzModem_error
 .text.common_diskboot
                0x0000000087810cc8      0x188 common/built-in.o
                0x0000000087810cc8                common_diskboot
 .text.get_dev_hwpart
                0x0000000087810e50       0x64 disk/built-in.o
 .text.dev_print
                0x0000000087810eb4      0x154 disk/built-in.o
                0x0000000087810eb4                dev_print
 .text.init_part
                0x0000000087811008       0x14 disk/built-in.o
                0x0000000087811008                init_part
 .text.print_part
                0x000000008781101c       0xa0 disk/built-in.o
                0x000000008781101c                print_part
 .text.get_partition_info
                0x00000000878110bc       0x1c disk/built-in.o
                0x00000000878110bc                get_partition_info
 .text.get_device
                0x00000000878110d8       0xa4 disk/built-in.o
                0x00000000878110d8                get_device
 .text.get_device_and_partition
                0x000000008781117c      0x290 disk/built-in.o
                0x000000008781117c                get_device_and_partition
 .text.test_block_type
                0x000000008781140c       0x50 disk/built-in.o
 .text.print_partition_extended
                0x000000008781145c      0x1b8 disk/built-in.o
 .text.get_partition_info_extended.constprop.1
                0x0000000087811614      0x1f8 disk/built-in.o
 .text.test_part_dos
                0x000000008781180c       0x42 disk/built-in.o
                0x000000008781180c                test_part_dos
 *fill*         0x000000008781184e        0x2 
 .text.print_part_dos
                0x0000000087811850       0x20 disk/built-in.o
                0x0000000087811850                print_part_dos
 .text.get_partition_info_dos
                0x0000000087811870       0x16 disk/built-in.o
                0x0000000087811870                get_partition_info_dos
 *fill*         0x0000000087811886        0x2 
 .text.device_bind
                0x0000000087811888      0x174 drivers/built-in.o
                0x0000000087811888                device_bind
 .text.device_bind_by_name
                0x00000000878119fc       0x3e drivers/built-in.o
                0x00000000878119fc                device_bind_by_name
 .text.device_probe
                0x0000000087811a3a        0x6 drivers/built-in.o
                0x0000000087811a3a                device_probe
 .text.device_probe_child
                0x0000000087811a40      0x120 drivers/built-in.o
                0x0000000087811a40                device_probe_child
 .text.dev_get_platdata
                0x0000000087811b60       0x20 drivers/built-in.o
                0x0000000087811b60                dev_get_platdata
 .text.dev_get_priv
                0x0000000087811b80       0x20 drivers/built-in.o
                0x0000000087811b80                dev_get_priv
 .text.lists_driver_lookup_name
                0x0000000087811ba0       0x2c drivers/built-in.o
                0x0000000087811ba0                lists_driver_lookup_name
 .text.lists_uclass_lookup
                0x0000000087811bcc       0x24 drivers/built-in.o
                0x0000000087811bcc                lists_uclass_lookup
 .text.lists_bind_drivers
                0x0000000087811bf0       0x58 drivers/built-in.o
                0x0000000087811bf0                lists_bind_drivers
 .text.dm_root  0x0000000087811c48       0x1c drivers/built-in.o
                0x0000000087811c48                dm_root
 .text.dm_init  0x0000000087811c64       0x44 drivers/built-in.o
                0x0000000087811c64                dm_init
 .text.dm_scan_platdata
                0x0000000087811ca8       0x20 drivers/built-in.o
                0x0000000087811ca8                dm_scan_platdata
 .text.dm_scan_other
                0x0000000087811cc8        0x4 drivers/built-in.o
                0x0000000087811cc8                dm_scan_other
 .text.dm_init_and_scan
                0x0000000087811ccc       0x1e drivers/built-in.o
                0x0000000087811ccc                dm_init_and_scan
 .text.uclass_find
                0x0000000087811cea       0x2a drivers/built-in.o
                0x0000000087811cea                uclass_find
 .text.uclass_get
                0x0000000087811d14       0xb4 drivers/built-in.o
                0x0000000087811d14                uclass_get
 .text.uclass_find_device
                0x0000000087811dc8       0x3a drivers/built-in.o
                0x0000000087811dc8                uclass_find_device
 .text.uclass_find_device_by_seq
                0x0000000087811e02       0x4a drivers/built-in.o
                0x0000000087811e02                uclass_find_device_by_seq
 .text.uclass_get_device
                0x0000000087811e4c       0x20 drivers/built-in.o
                0x0000000087811e4c                uclass_get_device
 .text.uclass_bind_device
                0x0000000087811e6c       0x4e drivers/built-in.o
                0x0000000087811e6c                uclass_bind_device
 .text.uclass_unbind_device
                0x0000000087811eba       0x24 drivers/built-in.o
                0x0000000087811eba                uclass_unbind_device
 *fill*         0x0000000087811ede        0x2 
 .text.uclass_resolve_seq
                0x0000000087811ee0       0x64 drivers/built-in.o
                0x0000000087811ee0                uclass_resolve_seq
 .text.uclass_pre_probe_child
                0x0000000087811f44       0x12 drivers/built-in.o
                0x0000000087811f44                uclass_pre_probe_child
 .text.uclass_post_probe_device
                0x0000000087811f56        0xe drivers/built-in.o
                0x0000000087811f56                uclass_post_probe_device
 .text.uclass_pre_remove_device
                0x0000000087811f64       0x2e drivers/built-in.o
                0x0000000087811f64                uclass_pre_remove_device
 .text.dm_warn  0x0000000087811f92       0x1a drivers/built-in.o
                0x0000000087811f92                dm_warn
 .text.device_free
                0x0000000087811fac       0x44 drivers/built-in.o
                0x0000000087811fac                device_free
 .text.device_remove
                0x0000000087811ff0       0xcc drivers/built-in.o
                0x0000000087811ff0                device_remove
 .text.finish_access
                0x00000000878120bc       0x20 drivers/built-in.o
 .text.set_timing
                0x00000000878120dc       0x7c drivers/built-in.o
 .text.prepare_access
                0x0000000087812158       0x4c drivers/built-in.o
 .text.fuse_bank_physical
                0x00000000878121a4       0x4c drivers/built-in.o
                0x00000000878121a4                fuse_bank_physical
 .text.fuse_read
                0x00000000878121f0       0x48 drivers/built-in.o
                0x00000000878121f0                fuse_read
 .text.fuse_sense
                0x0000000087812238       0x68 drivers/built-in.o
                0x0000000087812238                fuse_sense
 .text.fuse_prog
                0x00000000878122a0       0x6c drivers/built-in.o
                0x00000000878122a0                fuse_prog
 .text.fuse_override
                0x000000008781230c       0x44 drivers/built-in.o
                0x000000008781230c                fuse_override
 .text.reset_cpu
                0x0000000087812350       0x18 drivers/built-in.o
                0x0000000087812350                reset_cpu
 .text.thermal_get_temp
                0x0000000087812368       0x10 drivers/built-in.o
                0x0000000087812368                thermal_get_temp
 .text.read_cpu_temperature
                0x0000000087812378      0x108 drivers/built-in.o
 .text.imx_thermal_get_temp
                0x0000000087812480       0x38 drivers/built-in.o
                0x0000000087812480                imx_thermal_get_temp
 .text.imx_thermal_probe
                0x00000000878124b8       0x50 drivers/built-in.o
 .text.gpio_set_value
                0x0000000087812508       0x34 drivers/gpio/built-in.o
                0x0000000087812508                gpio_set_value
 .text.gpio_get_value
                0x000000008781253c       0x28 drivers/gpio/built-in.o
                0x000000008781253c                gpio_get_value
 .text.gpio_request
                0x0000000087812564        0xc drivers/gpio/built-in.o
                0x0000000087812564                gpio_request
 .text.gpio_free
                0x0000000087812570        0x4 drivers/gpio/built-in.o
                0x0000000087812570                gpio_free
 .text.gpio_direction_input
                0x0000000087812574       0x2c drivers/gpio/built-in.o
                0x0000000087812574                gpio_direction_input
 .text.gpio_direction_output
                0x00000000878125a0       0x38 drivers/gpio/built-in.o
                0x00000000878125a0                gpio_direction_output
 .text.i2c_get_adapter
                0x00000000878125d8       0x40 drivers/i2c/built-in.o
                0x00000000878125d8                i2c_get_adapter
 .text.i2c_init_bus
                0x0000000087812618       0x64 drivers/i2c/built-in.o
 .text.i2c_get_bus_num
                0x000000008781267c        0x6 drivers/i2c/built-in.o
                0x000000008781267c                i2c_get_bus_num
 *fill*         0x0000000087812682        0x2 
 .text.i2c_set_bus_num
                0x0000000087812684       0x80 drivers/i2c/built-in.o
                0x0000000087812684                i2c_set_bus_num
 .text.i2c_init_all
                0x0000000087812704       0x10 drivers/i2c/built-in.o
                0x0000000087812704                i2c_init_all
 .text.i2c_probe
                0x0000000087812714       0x20 drivers/i2c/built-in.o
                0x0000000087812714                i2c_probe
 .text.i2c_read
                0x0000000087812734       0x34 drivers/i2c/built-in.o
                0x0000000087812734                i2c_read
 .text.i2c_write
                0x0000000087812768       0x34 drivers/i2c/built-in.o
                0x0000000087812768                i2c_write
 .text.i2c_set_bus_speed
                0x000000008781279c       0x44 drivers/i2c/built-in.o
                0x000000008781279c                i2c_set_bus_speed
 .text.i2c_get_bus_speed
                0x00000000878127e0        0xe drivers/i2c/built-in.o
                0x00000000878127e0                i2c_get_bus_speed
 .text.i2c_init
                0x00000000878127ee        0xe drivers/i2c/built-in.o
                0x00000000878127ee                i2c_init
 .text.wait_for_sr_state
                0x00000000878127fc       0x78 drivers/i2c/built-in.o
 .text.tx_byte  0x0000000087812874       0x20 drivers/i2c/built-in.o
 .text.i2c_imx_get_clk
                0x0000000087812894       0x40 drivers/i2c/built-in.o
 .text.i2c_imx_stop
                0x00000000878128d4       0x30 drivers/i2c/built-in.o
 .text.mxc_i2c_set_bus_speed
                0x0000000087812904       0x2c drivers/i2c/built-in.o
 .text.__i2c_force_reset_slave
                0x0000000087812930        0x2 drivers/i2c/built-in.o
                0x0000000087812930                __i2c_force_reset_slave
                0x0000000087812930                i2c_force_reset_slave
 *fill*         0x0000000087812932        0x2 
 .text.i2c_init_transfer
                0x0000000087812934      0x12c drivers/i2c/built-in.o
 .text.bus_i2c_read
                0x0000000087812a60       0xa2 drivers/i2c/built-in.o
                0x0000000087812a60                bus_i2c_read
 *fill*         0x0000000087812b02        0x2 
 .text.mxc_i2c_read
                0x0000000087812b04       0x14 drivers/i2c/built-in.o
 .text.bus_i2c_write
                0x0000000087812b18       0x30 drivers/i2c/built-in.o
                0x0000000087812b18                bus_i2c_write
 .text.mxc_i2c_write
                0x0000000087812b48       0x14 drivers/i2c/built-in.o
 .text.mxc_i2c_probe
                0x0000000087812b5c       0x20 drivers/i2c/built-in.o
 .text.bus_i2c_init
                0x0000000087812b7c       0x48 drivers/i2c/built-in.o
                0x0000000087812b7c                bus_i2c_init
 .text.mxc_i2c_init
                0x0000000087812bc4       0x1c drivers/i2c/built-in.o
 .text.esdhc_getcd
                0x0000000087812be0       0x28 drivers/mmc/built-in.o
 .text.esdhc_set_ios
                0x0000000087812c08       0xca drivers/mmc/built-in.o
 *fill*         0x0000000087812cd2        0x2 
 .text.esdhc_init
                0x0000000087812cd4       0x6c drivers/mmc/built-in.o
 .text.check_and_invalidate_dcache_range.isra.0
                0x0000000087812d40       0x22 drivers/mmc/built-in.o
 *fill*         0x0000000087812d62        0x2 
 .text.esdhc_send_cmd
                0x0000000087812d64      0x2a8 drivers/mmc/built-in.o
 .text.fsl_esdhc_initialize
                0x000000008781300c       0xec drivers/mmc/built-in.o
                0x000000008781300c                fsl_esdhc_initialize
 .text.fsl_esdhc_mmc_init
                0x00000000878130f8       0x22 drivers/mmc/built-in.o
                0x00000000878130f8                fsl_esdhc_mmc_init
 .text.mmc_set_ios
                0x000000008781311a        0xc drivers/mmc/built-in.o
 .text.mmc_set_capacity
                0x0000000087813126       0x64 drivers/mmc/built-in.o
 .text.board_mmc_getwp
                0x000000008781318a        0x6 drivers/mmc/built-in.o
                0x000000008781318a                board_mmc_getwp
 .text.mmc_getwp
                0x0000000087813190       0x20 drivers/mmc/built-in.o
                0x0000000087813190                mmc_getwp
 .text.mmc_send_cmd
                0x00000000878131b0        0x8 drivers/mmc/built-in.o
                0x00000000878131b0                mmc_send_cmd
 .text.mmc_send_ext_csd
                0x00000000878131b8       0x2e drivers/mmc/built-in.o
 .text.mmc_go_idle
                0x00000000878131e6       0x32 drivers/mmc/built-in.o
 .text.mmc_send_op_cond_iter
                0x0000000087813218       0x50 drivers/mmc/built-in.o
 .text.mmc_send_status
                0x0000000087813268       0x88 drivers/mmc/built-in.o
                0x0000000087813268                mmc_send_status
 .text.mmc_switch.isra.0
                0x00000000878132f0       0x34 drivers/mmc/built-in.o
 .text.mmc_set_blocklen
                0x0000000087813324       0x26 drivers/mmc/built-in.o
                0x0000000087813324                mmc_set_blocklen
 *fill*         0x000000008781334a        0x2 
 .text.find_mmc_device
                0x000000008781334c       0x30 drivers/mmc/built-in.o
                0x000000008781334c                find_mmc_device
 .text.mmc_bread
                0x000000008781337c       0xc8 drivers/mmc/built-in.o
 .text.mmc_switch_part
                0x0000000087813444       0x3c drivers/mmc/built-in.o
                0x0000000087813444                mmc_switch_part
 .text.mmc_select_hwpart
                0x0000000087813480       0x48 drivers/mmc/built-in.o
                0x0000000087813480                mmc_select_hwpart
 .text.mmc_hwpart_config
                0x00000000878134c8      0x2c4 drivers/mmc/built-in.o
                0x00000000878134c8                mmc_hwpart_config
 .text.mmc_getcd
                0x000000008781378c       0x20 drivers/mmc/built-in.o
                0x000000008781378c                mmc_getcd
 .text.mmc_set_clock
                0x00000000878137ac       0x1c drivers/mmc/built-in.o
                0x00000000878137ac                mmc_set_clock
 .text.mmc_startup
                0x00000000878137c8      0x88c drivers/mmc/built-in.o
 .text.mmc_create
                0x0000000087814054       0x98 drivers/mmc/built-in.o
                0x0000000087814054                mmc_create
 .text.board_mmc_power_init
                0x00000000878140ec        0x2 drivers/mmc/built-in.o
                0x00000000878140ec                board_mmc_power_init
 *fill*         0x00000000878140ee        0x2 
 .text.mmc_start_init
                0x00000000878140f0      0x1a0 drivers/mmc/built-in.o
                0x00000000878140f0                mmc_start_init
 .text.mmc_init
                0x0000000087814290       0x9c drivers/mmc/built-in.o
                0x0000000087814290                mmc_init
 .text.mmc_get_dev
                0x000000008781432c       0x1c drivers/mmc/built-in.o
                0x000000008781432c                mmc_get_dev
 .text.mmc_set_dsr
                0x0000000087814348        0x6 drivers/mmc/built-in.o
                0x0000000087814348                mmc_set_dsr
 *fill*         0x000000008781434e        0x2 
 .text.print_mmc_devices
                0x0000000087814350       0x84 drivers/mmc/built-in.o
                0x0000000087814350                print_mmc_devices
 .text.get_mmc_num
                0x00000000878143d4        0xc drivers/mmc/built-in.o
                0x00000000878143d4                get_mmc_num
 .text.mmc_initialize
                0x00000000878143e0       0x48 drivers/mmc/built-in.o
                0x00000000878143e0                mmc_initialize
 .text.mmc_berase
                0x0000000087814428      0x108 drivers/mmc/built-in.o
                0x0000000087814428                mmc_berase
 .text.mmc_bwrite
                0x0000000087814530       0xe0 drivers/mmc/built-in.o
                0x0000000087814530                mmc_bwrite
 .text.spi_flash_probe_slave
                0x0000000087814610      0x2d0 drivers/mtd/spi/built-in.o
                0x0000000087814610                spi_flash_probe_slave
 .text.spi_flash_probe_tail
                0x00000000878148e0       0x2e drivers/mtd/spi/built-in.o
                0x00000000878148e0                spi_flash_probe_tail
 .text.spi_flash_probe
                0x000000008781490e       0x12 drivers/mtd/spi/built-in.o
                0x000000008781490e                spi_flash_probe
 .text.spi_flash_free
                0x0000000087814920       0x14 drivers/mtd/spi/built-in.o
                0x0000000087814920                spi_flash_free
 .text.spi_flash_read_write
                0x0000000087814934       0x40 drivers/mtd/spi/built-in.o
 .text.spi_flash_cmd_read
                0x0000000087814974       0x12 drivers/mtd/spi/built-in.o
                0x0000000087814974                spi_flash_cmd_read
 .text.spi_flash_cmd
                0x0000000087814986       0x18 drivers/mtd/spi/built-in.o
                0x0000000087814986                spi_flash_cmd
 .text.spi_flash_cmd_write
                0x000000008781499e       0x12 drivers/mtd/spi/built-in.o
                0x000000008781499e                spi_flash_cmd_write
 .text.spi_flash_cmd_wait_ready
                0x00000000878149b0       0x92 drivers/mtd/spi/built-in.o
                0x00000000878149b0                spi_flash_cmd_wait_ready
 .text.spi_flash_write_common
                0x0000000087814a42       0x60 drivers/mtd/spi/built-in.o
                0x0000000087814a42                spi_flash_write_common
 .text.spi_flash_bank
                0x0000000087814aa2       0x3e drivers/mtd/spi/built-in.o
 .text.spi_flash_cmd_erase_ops
                0x0000000087814ae0       0x76 drivers/mtd/spi/built-in.o
                0x0000000087814ae0                spi_flash_cmd_erase_ops
 .text.spi_flash_cmd_write_ops
                0x0000000087814b56       0x86 drivers/mtd/spi/built-in.o
                0x0000000087814b56                spi_flash_cmd_write_ops
 .text.spi_flash_read_common
                0x0000000087814bdc       0x32 drivers/mtd/spi/built-in.o
                0x0000000087814bdc                spi_flash_read_common
 .text.spi_flash_cmd_read_status
                0x0000000087814c0e       0x1e drivers/mtd/spi/built-in.o
                0x0000000087814c0e                spi_flash_cmd_read_status
 .text.spi_flash_cmd_write_config
                0x0000000087814c2c       0x30 drivers/mtd/spi/built-in.o
                0x0000000087814c2c                spi_flash_cmd_write_config
 .text.spi_flash_cmd_read_config
                0x0000000087814c5c       0x1e drivers/mtd/spi/built-in.o
                0x0000000087814c5c                spi_flash_cmd_read_config
 .text.spi_flash_cmd_read_ops
                0x0000000087814c7a       0xde drivers/mtd/spi/built-in.o
                0x0000000087814c7a                spi_flash_cmd_read_ops
 .text.fec_set_hwaddr
                0x0000000087814d58       0x52 drivers/net/built-in.o
 *fill*         0x0000000087814daa        0x2 
 .text.fec_reg_setup
                0x0000000087814dac       0x40 drivers/net/built-in.o
 .text.fec_phy_write
                0x0000000087814dec       0x50 drivers/net/built-in.o
 .text.fec_phy_read
                0x0000000087814e3c       0x54 drivers/net/built-in.o
 .text.fec_halt
                0x0000000087814e90       0x40 drivers/net/built-in.o
 .text.fec_send
                0x0000000087814ed0       0xc0 drivers/net/built-in.o
 .text.fec_mii_setspeed
                0x0000000087814f90       0x44 drivers/net/built-in.o
 .text.fec_init
                0x0000000087814fd4      0x1ac drivers/net/built-in.o
 .text.fec_recv
                0x0000000087815180      0x160 drivers/net/built-in.o
 .text.fec_probe
                0x00000000878152e0      0x25c drivers/net/built-in.o
                0x00000000878152e0                fec_probe
 .text.fec_get_miibus
                0x000000008781553c       0x70 drivers/net/built-in.o
                0x000000008781553c                fec_get_miibus
 .text.fecmxc_initialize_multi
                0x00000000878155ac       0x5a drivers/net/built-in.o
                0x00000000878155ac                fecmxc_initialize_multi
 *fill*         0x0000000087815606        0x2 
 .text.fecmxc_initialize
                0x0000000087815608       0x10 drivers/net/built-in.o
                0x0000000087815608                fecmxc_initialize
 .text.genphy_shutdown
                0x0000000087815618        0x4 drivers/net/phy/built-in.o
                0x0000000087815618                genphy_shutdown
 .text.generic_ffs.part.0
                0x000000008781561c       0x30 drivers/net/phy/built-in.o
 .text.phy_device_create
                0x000000008781564c       0x90 drivers/net/phy/built-in.o
 .text.get_phy_device_by_mask
                0x00000000878156dc       0xdc drivers/net/phy/built-in.o
 .text.genphy_restart_aneg
                0x00000000878157b8       0x36 drivers/net/phy/built-in.o
                0x00000000878157b8                genphy_restart_aneg
 .text.genphy_config_aneg
                0x00000000878157ee      0x13c drivers/net/phy/built-in.o
                0x00000000878157ee                genphy_config_aneg
 .text.genphy_config
                0x000000008781592a       0x88 drivers/net/phy/built-in.o
                0x000000008781592a                genphy_config
 *fill*         0x00000000878159b2        0x2 
 .text.genphy_update_link
                0x00000000878159b4       0xdc drivers/net/phy/built-in.o
                0x00000000878159b4                genphy_update_link
 .text.genphy_parse_link
                0x0000000087815a90      0x10a drivers/net/phy/built-in.o
                0x0000000087815a90                genphy_parse_link
 .text.genphy_startup
                0x0000000087815b9a       0x12 drivers/net/phy/built-in.o
                0x0000000087815b9a                genphy_startup
 .text.phy_init
                0x0000000087815bac        0xa drivers/net/phy/built-in.o
                0x0000000087815bac                phy_init
 *fill*         0x0000000087815bb6        0x2 
 .text.phy_register
                0x0000000087815bb8       0x18 drivers/net/phy/built-in.o
                0x0000000087815bb8                phy_register
 .text.phy_reset
                0x0000000087815bd0       0x6c drivers/net/phy/built-in.o
                0x0000000087815bd0                phy_reset
 .text.phy_find_by_mask
                0x0000000087815c3c       0x24 drivers/net/phy/built-in.o
                0x0000000087815c3c                phy_find_by_mask
 .text.phy_connect_dev
                0x0000000087815c60       0x28 drivers/net/phy/built-in.o
                0x0000000087815c60                phy_connect_dev
 .text.phy_startup
                0x0000000087815c88        0xc drivers/net/phy/built-in.o
                0x0000000087815c88                phy_startup
 .text.phy_config
                0x0000000087815c94        0xa drivers/net/phy/built-in.o
                0x0000000087815c94                phy_config
 .text.ksz8895_startup
                0x0000000087815c9e        0x4 drivers/net/phy/built-in.o
 .text.ksz90xx_startup
                0x0000000087815ca2       0x3e drivers/net/phy/built-in.o
 .text.ksz8895_config
                0x0000000087815ce0       0x20 drivers/net/phy/built-in.o
                0x0000000087815ce0                ksz8895_config
 .text.ksz9031_phy_extended_write
                0x0000000087815d00       0x64 drivers/net/phy/built-in.o
                0x0000000087815d00                ksz9031_phy_extended_write
 .text.ksz9031_phy_extwrite
                0x0000000087815d64       0x12 drivers/net/phy/built-in.o
 .text.ksz9031_phy_extended_read
                0x0000000087815d76       0x5c drivers/net/phy/built-in.o
                0x0000000087815d76                ksz9031_phy_extended_read
 .text.ksz9031_phy_extread
                0x0000000087815dd2        0xc drivers/net/phy/built-in.o
 *fill*         0x0000000087815dde        0x2 
 .text.phy_micrel_init
                0x0000000087815de0       0x38 drivers/net/phy/built-in.o
                0x0000000087815de0                phy_micrel_init
 .text.check_reg
                0x0000000087815e18       0x1c drivers/power/built-in.o
                0x0000000087815e18                check_reg
 .text.pmic_alloc
                0x0000000087815e34       0x38 drivers/power/built-in.o
                0x0000000087815e34                pmic_alloc
 .text.pmic_get
                0x0000000087815e6c       0x30 drivers/power/built-in.o
                0x0000000087815e6c                pmic_get
 .text.power_get_interface
                0x0000000087815e9c       0x24 drivers/power/built-in.o
                0x0000000087815e9c                power_get_interface
 .text.do_pmic  0x0000000087815ec0      0x1e0 drivers/power/built-in.o
                0x0000000087815ec0                do_pmic
 .text.pmic_reg_write
                0x00000000878160a0       0x9c drivers/power/built-in.o
                0x00000000878160a0                pmic_reg_write
 .text.pmic_reg_read
                0x000000008781613c       0xa0 drivers/power/built-in.o
                0x000000008781613c                pmic_reg_read
 .text.pmic_probe
                0x00000000878161dc       0x24 drivers/power/built-in.o
                0x00000000878161dc                pmic_probe
 .text.power_pfuze3000_init
                0x0000000087816200       0x40 drivers/power/pmic/built-in.o
                0x0000000087816200                power_pfuze3000_init
 .text.serial_stub_start
                0x0000000087816240        0x6 drivers/serial/built-in.o
 .text.serial_stub_stop
                0x0000000087816246        0x6 drivers/serial/built-in.o
 .text.serial_stub_putc
                0x000000008781624c        0x8 drivers/serial/built-in.o
 .text.serial_stub_puts
                0x0000000087816254        0x8 drivers/serial/built-in.o
 .text.serial_stub_getc
                0x000000008781625c        0x6 drivers/serial/built-in.o
                0x000000008781625c                serial_stub_getc
 .text.serial_stub_tstc
                0x0000000087816262        0x6 drivers/serial/built-in.o
                0x0000000087816262                serial_stub_tstc
 .text.get_current
                0x0000000087816268       0x28 drivers/serial/built-in.o
 .text.serial_null
                0x0000000087816290        0x2 drivers/serial/built-in.o
                0x0000000087816290                jz_serial_initialize
                0x0000000087816290                bfin_serial_initialize
                0x0000000087816290                p3mx_serial_initialize
                0x0000000087816290                leon2_serial_initialize
                0x0000000087816290                leon3_serial_initialize
                0x0000000087816290                amirix_serial_initialize
                0x0000000087816290                marvell_serial_initialize
                0x0000000087816290                cpci750_serial_initialize
                0x0000000087816290                ns16550_serial_initialize
                0x0000000087816290                asc_serial_initialize
                0x0000000087816290                altera_serial_initialize
                0x0000000087816290                sh_serial_initialize
                0x0000000087816290                oc_serial_initialize
                0x0000000087816290                mxs_auart_initialize
                0x0000000087816290                arm_dcc_initialize
                0x0000000087816290                bmw_serial_initialize
                0x0000000087816290                arc_serial_initialize
                0x0000000087816290                mcf_serial_initialize
                0x0000000087816290                lh7a40x_serial_initialize
                0x0000000087816290                evb64260_serial_initialize
                0x0000000087816290                lpc32xx_serial_initialize
                0x0000000087816290                max3100_serial_initialize
                0x0000000087816290                mpc85xx_serial_initialize
                0x0000000087816290                imx_serial_initialize
                0x0000000087816290                bfin_jtag_initialize
                0x0000000087816290                cogent_serial_initialize
                0x0000000087816290                clps7111_serial_initialize
                0x0000000087816290                ml2_serial_initialize
                0x0000000087816290                sandbox_serial_initialize
                0x0000000087816290                s3c24xx_serial_initialize
                0x0000000087816290                sconsole_serial_initialize
                0x0000000087816290                uartlite_serial_initialize
                0x0000000087816290                au1x00_serial_initialize
                0x0000000087816290                pxa_serial_initialize
                0x0000000087816290                atmel_serial_initialize
                0x0000000087816290                pl01x_serial_initialize
                0x0000000087816290                altera_jtag_serial_initialize
                0x0000000087816290                mpc512x_serial_initialize
                0x0000000087816290                s5p_serial_initialize
                0x0000000087816290                zynq_serial_initialize
                0x0000000087816290                sa1100_serial_initialize
                0x0000000087816290                mpc8260_scc_serial_initialize
                0x0000000087816290                iop480_serial_initialize
                0x0000000087816290                mpc8xx_serial_initialize
                0x0000000087816290                mpc8260_smc_serial_initialize
                0x0000000087816290                mpc5xx_serial_initialize
 *fill*         0x0000000087816292        0x2 
 .text.serial_register
                0x0000000087816294       0x10 drivers/serial/built-in.o
                0x0000000087816294                serial_register
 .text.serial_stdio_init
                0x00000000878162a4       0x64 drivers/serial/built-in.o
                0x00000000878162a4                serial_stdio_init
 .text.serial_assign
                0x0000000087816308       0x2c drivers/serial/built-in.o
                0x0000000087816308                serial_assign
 .text.serial_initialize
                0x0000000087816334       0xca drivers/serial/built-in.o
                0x0000000087816334                serial_initialize
 .text.serial_init
                0x00000000878163fe       0x1a drivers/serial/built-in.o
                0x00000000878163fe                serial_init
 .text.serial_setbrg
                0x0000000087816418        0xe drivers/serial/built-in.o
                0x0000000087816418                serial_setbrg
 *fill*         0x0000000087816426        0x2 
 .text.on_baudrate
                0x0000000087816428       0x9c drivers/serial/built-in.o
 .text.serial_getc
                0x00000000878164c4        0xe drivers/serial/built-in.o
                0x00000000878164c4                serial_getc
 .text.serial_tstc
                0x00000000878164d2        0xe drivers/serial/built-in.o
                0x00000000878164d2                serial_tstc
 .text.serial_putc
                0x00000000878164e0       0x12 drivers/serial/built-in.o
                0x00000000878164e0                serial_putc
 .text.serial_puts
                0x00000000878164f2       0x12 drivers/serial/built-in.o
                0x00000000878164f2                serial_puts
 .text.default_serial_puts
                0x0000000087816504       0x1a drivers/serial/built-in.o
                0x0000000087816504                default_serial_puts
 *fill*         0x000000008781651e        0x2 
 .text.mxc_serial_getc
                0x0000000087816520       0x18 drivers/serial/built-in.o
 .text.mxc_serial_tstc
                0x0000000087816538       0x14 drivers/serial/built-in.o
 .text.mxc_serial_putc
                0x000000008781654c       0x20 drivers/serial/built-in.o
 .text.mxc_serial_setbrg
                0x000000008781656c       0x38 drivers/serial/built-in.o
 .text.mxc_serial_init
                0x00000000878165a4       0x4c drivers/serial/built-in.o
 .text.mxc_serial_initialize
                0x00000000878165f0        0xc drivers/serial/built-in.o
                0x00000000878165f0                mxc_serial_initialize
 .text.default_serial_console
                0x00000000878165fc        0x8 drivers/serial/built-in.o
                0x00000000878165fc                default_serial_console
 .text.spi_do_alloc_slave
                0x0000000087816604       0x30 drivers/spi/built-in.o
                0x0000000087816604                spi_do_alloc_slave
 .text.fsl_qspi_runcmd
                0x0000000087816634      0x144 drivers/spi/built-in.o
 .text.spi_setup_slave
                0x0000000087816778      0x214 drivers/spi/built-in.o
                0x0000000087816778                spi_setup_slave
 .text.spi_free_slave
                0x000000008781698c       0x14 drivers/spi/built-in.o
                0x000000008781698c                spi_free_slave
 .text.spi_claim_bus
                0x00000000878169a0        0x4 drivers/spi/built-in.o
                0x00000000878169a0                spi_claim_bus
 .text.spi_release_bus
                0x00000000878169a4        0x2 drivers/spi/built-in.o
                0x00000000878169a4                spi_release_bus
 *fill*         0x00000000878169a6        0x2 
 .text.spi_xfer
                0x00000000878169a8      0x13c drivers/spi/built-in.o
                0x00000000878169a8                spi_xfer
 .text.usb_host_eth_scan
                0x0000000087816ae4      0x100 drivers/usb/eth/built-in.o
                0x0000000087816ae4                usb_host_eth_scan
 .text.asix_halt
                0x0000000087816be4        0x2 drivers/usb/eth/built-in.o
 .text.asix_send
                0x0000000087816be6       0x64 drivers/usb/eth/built-in.o
 .text.asix_recv
                0x0000000087816c4a       0xa8 drivers/usb/eth/built-in.o
 .text.asix_write_cmd.isra.0
                0x0000000087816cf2       0x36 drivers/usb/eth/built-in.o
 .text.asix_write_hwaddr
                0x0000000087816d28       0x30 drivers/usb/eth/built-in.o
 .text.asix_mdio_write
                0x0000000087816d58       0x52 drivers/usb/eth/built-in.o
 *fill*         0x0000000087816daa        0x2 
 .text.asix_sw_reset
                0x0000000087816dac       0x28 drivers/usb/eth/built-in.o
 .text.asix_read_cmd.isra.1
                0x0000000087816dd4       0x3a drivers/usb/eth/built-in.o
 .text.asix_mdio_read
                0x0000000087816e0e       0x52 drivers/usb/eth/built-in.o
 .text.asix_read_rx_ctl
                0x0000000087816e60       0x2a drivers/usb/eth/built-in.o
 *fill*         0x0000000087816e8a        0x2 
 .text.asix_init
                0x0000000087816e8c       0x6c drivers/usb/eth/built-in.o
 .text.asix_eth_before_probe
                0x0000000087816ef8        0xc drivers/usb/eth/built-in.o
                0x0000000087816ef8                asix_eth_before_probe
 .text.asix_eth_probe
                0x0000000087816f04      0x100 drivers/usb/eth/built-in.o
                0x0000000087816f04                asix_eth_probe
 .text.asix_eth_get_info
                0x0000000087817004      0x230 drivers/usb/eth/built-in.o
                0x0000000087817004                asix_eth_get_info
 .text.handshake
                0x0000000087817234       0x32 drivers/usb/host/built-in.o
 *fill*         0x0000000087817266        0x2 
 .text.ehci_shutdown
                0x0000000087817268       0x6c drivers/usb/host/built-in.o
 .text.ehci_td_buffer
                0x00000000878172d4       0x58 drivers/usb/host/built-in.o
 .text.ehci_update_endpt2_dev_n_port.isra.0.part.1
                0x000000008781732c       0x2c drivers/usb/host/built-in.o
 .text.ehci_submit_async
                0x0000000087817358      0x3d8 drivers/usb/host/built-in.o
 .text.disable_periodic.isra.2
                0x0000000087817730       0x34 drivers/usb/host/built-in.o
 .text.enable_periodic.isra.3
                0x0000000087817764       0x3c drivers/usb/host/built-in.o
 .text.ehci_powerup_fixup
                0x00000000878177a0        0x6 drivers/usb/host/built-in.o
                0x00000000878177a0                ehci_powerup_fixup
 .text.ehci_get_portsc_register
                0x00000000878177a6        0xe drivers/usb/host/built-in.o
                0x00000000878177a6                ehci_get_portsc_register
 .text.ehci_submit_root
                0x00000000878177b4      0x394 drivers/usb/host/built-in.o
                0x00000000878177b4                ehci_submit_root
 .text.usb_lowlevel_stop
                0x0000000087817b48       0x1c drivers/usb/host/built-in.o
                0x0000000087817b48                usb_lowlevel_stop
 .text.usb_lowlevel_init
                0x0000000087817b64      0x1b8 drivers/usb/host/built-in.o
                0x0000000087817b64                usb_lowlevel_init
 .text.submit_bulk_msg
                0x0000000087817d1c       0x1a drivers/usb/host/built-in.o
                0x0000000087817d1c                submit_bulk_msg
 .text.submit_control_msg
                0x0000000087817d36       0x52 drivers/usb/host/built-in.o
                0x0000000087817d36                submit_control_msg
 .text.create_int_queue
                0x0000000087817d88      0x258 drivers/usb/host/built-in.o
                0x0000000087817d88                create_int_queue
 .text.poll_int_queue
                0x0000000087817fe0       0x58 drivers/usb/host/built-in.o
                0x0000000087817fe0                poll_int_queue
 .text.destroy_int_queue
                0x0000000087818038       0xa0 drivers/usb/host/built-in.o
                0x0000000087818038                destroy_int_queue
 .text.submit_int_msg
                0x00000000878180d8       0x7c drivers/usb/host/built-in.o
                0x00000000878180d8                submit_int_msg
 .text.usb_phy_mode
                0x0000000087818154       0x14 drivers/usb/host/built-in.o
                0x0000000087818154                usb_phy_mode
 .text.board_ehci_power
                0x0000000087818168        0x4 drivers/usb/host/built-in.o
                0x0000000087818168                board_ehci_power
 .text.ehci_hcd_init
                0x000000008781816c      0x164 drivers/usb/host/built-in.o
                0x000000008781816c                ehci_hcd_init
 .text.ehci_hcd_stop
                0x00000000878182d0        0x4 drivers/usb/host/built-in.o
                0x00000000878182d0                ehci_hcd_stop
 .text.fs_probe_unsupported
                0x00000000878182d4       0x14 fs/built-in.o
 .text.fs_exists_unsupported
                0x00000000878182e8        0x4 fs/built-in.o
 .text.fs_size_unsupported
                0x00000000878182ec        0x6 fs/built-in.o
 .text.fs_write_unsupported
                0x00000000878182f2        0x6 fs/built-in.o
 .text.fs_close_unsupported
                0x00000000878182f8        0x2 fs/built-in.o
 .text.fs_uuid_unsupported
                0x00000000878182fa        0x6 fs/built-in.o
 .text.fs_get_info
                0x0000000087818300       0x24 fs/built-in.o
 .text.fs_close
                0x0000000087818324       0x18 fs/built-in.o
 .text.fs_read_unsupported
                0x000000008781833c        0x6 fs/built-in.o
 .text.fs_ls_unsupported
                0x0000000087818342        0x6 fs/built-in.o
 .text.fs_set_blk_dev
                0x0000000087818348       0x64 fs/built-in.o
                0x0000000087818348                fs_set_blk_dev
 .text.fs_ls    0x00000000878183ac       0x24 fs/built-in.o
                0x00000000878183ac                fs_ls
 .text.fs_exists
                0x00000000878183d0       0x20 fs/built-in.o
                0x00000000878183d0                fs_exists
 .text.fs_size  0x00000000878183f0       0x24 fs/built-in.o
                0x00000000878183f0                fs_size
 .text.fs_read  0x0000000087818414       0x64 fs/built-in.o
                0x0000000087818414                fs_read
 .text.do_size  0x0000000087818478       0x40 fs/built-in.o
                0x0000000087818478                do_size
 .text.do_load  0x00000000878184b8      0x16c fs/built-in.o
                0x00000000878184b8                do_load
 .text.do_ls    0x0000000087818624       0x40 fs/built-in.o
                0x0000000087818624                do_ls
 .text.file_exists
                0x0000000087818664       0x1a fs/built-in.o
                0x0000000087818664                file_exists
 *fill*         0x000000008781867e        0x2 
 .text.get_fs   0x0000000087818680        0x8 fs/built-in.o
                0x0000000087818680                get_fs
 .text.ext4fs_free_node
                0x0000000087818688       0x18 fs/built-in.o
                0x0000000087818688                ext4fs_free_node
 .text.ext4fs_read_file
                0x00000000878186a0      0x244 fs/built-in.o
                0x00000000878186a0                ext4fs_read_file
 .text.ext4fs_ls
                0x00000000878188e4       0x48 fs/built-in.o
                0x00000000878188e4                ext4fs_ls
 .text.ext4fs_exists
                0x000000008781892c       0x14 fs/built-in.o
                0x000000008781892c                ext4fs_exists
 .text.ext4fs_size
                0x0000000087818940        0x4 fs/built-in.o
                0x0000000087818940                ext4fs_size
 .text.ext4fs_read
                0x0000000087818944       0x30 fs/built-in.o
                0x0000000087818944                ext4fs_read
 .text.ext4fs_probe
                0x0000000087818974       0x1e fs/built-in.o
                0x0000000087818974                ext4fs_probe
 *fill*         0x0000000087818992        0x2 
 .text.ext4_read_file
                0x0000000087818994       0x54 fs/built-in.o
                0x0000000087818994                ext4_read_file
 .text.ext4fs_uuid
                0x00000000878189e8       0x18 fs/built-in.o
                0x00000000878189e8                ext4fs_uuid
 .text.ext4fs_read_inode
                0x0000000087818a00       0xbe fs/built-in.o
                0x0000000087818a00                ext4fs_read_inode
 *fill*         0x0000000087818abe        0x2 
 .text.read_allocated_block
                0x0000000087818ac0      0x640 fs/built-in.o
                0x0000000087818ac0                read_allocated_block
 .text.ext4fs_reinit_global
                0x0000000087819100       0x78 fs/built-in.o
                0x0000000087819100                ext4fs_reinit_global
 .text.ext4fs_close
                0x0000000087819178       0x34 fs/built-in.o
                0x0000000087819178                ext4fs_close
 .text.ext4fs_iterate_dir
                0x00000000878191ac      0x1dc fs/built-in.o
                0x00000000878191ac                ext4fs_iterate_dir
 .text.ext4fs_find_file1
                0x0000000087819388      0x1a8 fs/built-in.o
 .text.ext4fs_find_file
                0x0000000087819530       0x40 fs/built-in.o
                0x0000000087819530                ext4fs_find_file
 .text.ext4fs_open
                0x0000000087819570       0x60 fs/built-in.o
                0x0000000087819570                ext4fs_open
 .text.ext4fs_mount
                0x00000000878195d0       0x84 fs/built-in.o
                0x00000000878195d0                ext4fs_mount
 .text.ext4fs_set_blk_dev
                0x0000000087819654       0x4c fs/built-in.o
                0x0000000087819654                ext4fs_set_blk_dev
 .text.ext4fs_devread
                0x00000000878196a0      0x194 fs/built-in.o
                0x00000000878196a0                ext4fs_devread
 .text.ext4_read_superblock
                0x0000000087819834       0x28 fs/built-in.o
                0x0000000087819834                ext4_read_superblock
 .text.downcase
                0x000000008781985c       0x1c fs/built-in.o
 .text.disk_read
                0x0000000087819878       0x30 fs/built-in.o
 .text.get_fatent
                0x00000000878198a8       0xcc fs/built-in.o
 .text.mkcksum  0x0000000087819974       0x36 fs/built-in.o
 *fill*         0x00000000878199aa        0x2 
 .text.get_cluster
                0x00000000878199ac       0xf0 fs/built-in.o
 .text.get_name
                0x0000000087819a9c       0x70 fs/built-in.o
 .text.read_bootsectandvi
                0x0000000087819b0c       0xb4 fs/built-in.o
 .text.slot2str
                0x0000000087819bc0       0x5c fs/built-in.o
 .text.get_vfatname
                0x0000000087819c1c      0x10c fs/built-in.o
 .text.fat_set_blk_dev
                0x0000000087819d28       0x88 fs/built-in.o
                0x0000000087819d28                fat_set_blk_dev
 .text.do_fat_read_at
                0x0000000087819db0      0x8b0 fs/built-in.o
                0x0000000087819db0                do_fat_read_at
 .text.do_fat_read
                0x000000008781a660       0x22 fs/built-in.o
                0x000000008781a660                do_fat_read
 *fill*         0x000000008781a682        0x2 
 .text.file_fat_detectfs
                0x000000008781a684       0xd4 fs/built-in.o
                0x000000008781a684                file_fat_detectfs
 .text.file_fat_ls
                0x000000008781a758       0x1a fs/built-in.o
                0x000000008781a758                file_fat_ls
 .text.fat_exists
                0x000000008781a772       0x2a fs/built-in.o
                0x000000008781a772                fat_exists
 .text.fat_size
                0x000000008781a79c       0x22 fs/built-in.o
                0x000000008781a79c                fat_size
 *fill*         0x000000008781a7be        0x2 
 .text.file_fat_read_at
                0x000000008781a7c0       0x3c fs/built-in.o
                0x000000008781a7c0                file_fat_read_at
 .text.fat_read_file
                0x000000008781a7fc       0x30 fs/built-in.o
                0x000000008781a7fc                fat_read_file
 .text.fat_close
                0x000000008781a82c        0x2 fs/built-in.o
                0x000000008781a82c                fat_close
 .text.zcalloc  0x000000008781a82e        0x8 lib/built-in.o
                0x000000008781a82e                zcalloc
 .text.zcfree   0x000000008781a836        0x6 lib/built-in.o
                0x000000008781a836                zcfree
 .text.inflate_fast
                0x000000008781a83c      0x3b4 lib/built-in.o
                0x000000008781a83c                inflate_fast
 .text.inflate_table
                0x000000008781abf0      0x340 lib/built-in.o
                0x000000008781abf0                inflate_table
 .text.inflateReset
                0x000000008781af30       0x40 lib/built-in.o
                0x000000008781af30                inflateReset
 .text.inflateInit2_
                0x000000008781af70       0x9c lib/built-in.o
                0x000000008781af70                inflateInit2_
 .text.inflateEnd
                0x000000008781b00c       0x2e lib/built-in.o
                0x000000008781b00c                inflateEnd
 .text.adler32  0x000000008781b03a      0x228 lib/built-in.o
                0x000000008781b03a                adler32
 *fill*         0x000000008781b262        0x2 
 .text.inflate  0x000000008781b264      0xd2c lib/built-in.o
                0x000000008781b264                inflate
 .text.fdt_check_header
                0x000000008781bf90       0x4c lib/built-in.o
                0x000000008781bf90                fdt_check_header
 .text.fdt_offset_ptr
                0x000000008781bfdc       0x2a lib/built-in.o
                0x000000008781bfdc                fdt_offset_ptr
 .text.fdt_next_tag
                0x000000008781c006       0x86 lib/built-in.o
                0x000000008781c006                fdt_next_tag
 .text._fdt_check_node_offset
                0x000000008781c08c       0x24 lib/built-in.o
                0x000000008781c08c                _fdt_check_node_offset
 .text._fdt_check_prop_offset
                0x000000008781c0b0       0x24 lib/built-in.o
                0x000000008781c0b0                _fdt_check_prop_offset
 .text.fdt_next_node
                0x000000008781c0d4       0x6e lib/built-in.o
                0x000000008781c0d4                fdt_next_node
 .text._fdt_find_string
                0x000000008781c142       0x30 lib/built-in.o
                0x000000008781c142                _fdt_find_string
 .text.fdt_move
                0x000000008781c172       0x2a lib/built-in.o
                0x000000008781c172                fdt_move
 .text._nextprop
                0x000000008781c19c       0x36 lib/built-in.o
 .text.fdt_string
                0x000000008781c1d2        0xa lib/built-in.o
                0x000000008781c1d2                fdt_string
 .text.fdt_get_mem_rsv
                0x000000008781c1dc       0x38 lib/built-in.o
                0x000000008781c1dc                fdt_get_mem_rsv
 .text.fdt_num_mem_rsv
                0x000000008781c214       0x22 lib/built-in.o
                0x000000008781c214                fdt_num_mem_rsv
 .text.fdt_subnode_offset_namelen
                0x000000008781c236       0x7c lib/built-in.o
                0x000000008781c236                fdt_subnode_offset_namelen
 .text.fdt_subnode_offset
                0x000000008781c2b2       0x1e lib/built-in.o
                0x000000008781c2b2                fdt_subnode_offset
 .text.fdt_get_name
                0x000000008781c2d0       0x3e lib/built-in.o
                0x000000008781c2d0                fdt_get_name
 .text.fdt_first_property_offset
                0x000000008781c30e       0x18 lib/built-in.o
                0x000000008781c30e                fdt_first_property_offset
 .text.fdt_next_property_offset
                0x000000008781c326       0x18 lib/built-in.o
                0x000000008781c326                fdt_next_property_offset
 .text.fdt_get_property_by_offset
                0x000000008781c33e       0x2e lib/built-in.o
                0x000000008781c33e                fdt_get_property_by_offset
 .text.fdt_get_property_namelen
                0x000000008781c36c       0x6e lib/built-in.o
                0x000000008781c36c                fdt_get_property_namelen
 .text.fdt_get_property
                0x000000008781c3da       0x22 lib/built-in.o
                0x000000008781c3da                fdt_get_property
 .text.fdt_getprop_namelen
                0x000000008781c3fc       0x12 lib/built-in.o
                0x000000008781c3fc                fdt_getprop_namelen
 .text.fdt_getprop
                0x000000008781c40e       0x22 lib/built-in.o
                0x000000008781c40e                fdt_getprop
 .text.fdt_get_alias_namelen
                0x000000008781c430       0x2c lib/built-in.o
                0x000000008781c430                fdt_get_alias_namelen
 .text.fdt_path_offset
                0x000000008781c45c       0x94 lib/built-in.o
                0x000000008781c45c                fdt_path_offset
 .text.fdt_supernode_atdepth_offset
                0x000000008781c4f0       0x72 lib/built-in.o
                0x000000008781c4f0                fdt_supernode_atdepth_offset
 .text.fdt_node_depth
                0x000000008781c562       0x1e lib/built-in.o
                0x000000008781c562                fdt_node_depth
 .text.fdt_stringlist_contains
                0x000000008781c580       0x48 lib/built-in.o
                0x000000008781c580                fdt_stringlist_contains
 .text.fdt_node_check_compatible
                0x000000008781c5c8       0x28 lib/built-in.o
                0x000000008781c5c8                fdt_node_check_compatible
 .text.fdt_node_offset_by_compatible
                0x000000008781c5f0       0x36 lib/built-in.o
                0x000000008781c5f0                fdt_node_offset_by_compatible
 .text._fdt_blocks_misordered
                0x000000008781c626       0x36 lib/built-in.o
 .text._fdt_splice
                0x000000008781c65c       0x42 lib/built-in.o
 .text._fdt_splice_mem_rsv
                0x000000008781c69e       0x2c lib/built-in.o
 .text._fdt_splice_struct
                0x000000008781c6ca       0x26 lib/built-in.o
 .text._fdt_packblocks
                0x000000008781c6f0       0x5c lib/built-in.o
 .text._fdt_add_property
                0x000000008781c74c       0xac lib/built-in.o
 .text._fdt_rw_check_header
                0x000000008781c7f8       0x38 lib/built-in.o
 .text.fdt_add_mem_rsv
                0x000000008781c830       0x52 lib/built-in.o
                0x000000008781c830                fdt_add_mem_rsv
 .text.fdt_del_mem_rsv
                0x000000008781c882       0x3e lib/built-in.o
                0x000000008781c882                fdt_del_mem_rsv
 .text.fdt_setprop
                0x000000008781c8c0       0x74 lib/built-in.o
                0x000000008781c8c0                fdt_setprop
 .text.fdt_delprop
                0x000000008781c934       0x3a lib/built-in.o
                0x000000008781c934                fdt_delprop
 .text.fdt_add_subnode_namelen
                0x000000008781c96e       0x9a lib/built-in.o
                0x000000008781c96e                fdt_add_subnode_namelen
 .text.fdt_add_subnode
                0x000000008781ca08       0x1e lib/built-in.o
                0x000000008781ca08                fdt_add_subnode
 .text.fdt_del_node
                0x000000008781ca26       0x32 lib/built-in.o
                0x000000008781ca26                fdt_del_node
 .text.fdt_open_into
                0x000000008781ca58       0xf0 lib/built-in.o
                0x000000008781ca58                fdt_open_into
 .text.fdt_strerror
                0x000000008781cb48       0x3c lib/built-in.o
                0x000000008781cb48                fdt_strerror
 .text._fdt_node_end_offset
                0x000000008781cb84       0x28 lib/built-in.o
                0x000000008781cb84                _fdt_node_end_offset
 .text.fdt_address_cells
                0x000000008781cbac       0x34 lib/built-in.o
                0x000000008781cbac                fdt_address_cells
 .text.fdt_size_cells
                0x000000008781cbe0       0x34 lib/built-in.o
                0x000000008781cbe0                fdt_size_cells
 .text.cyg_crc16
                0x000000008781cc14       0x2c lib/built-in.o
                0x000000008781cc14                cyg_crc16
 .text.gzalloc  0x000000008781cc40        0xe lib/built-in.o
                0x000000008781cc40                gzalloc
 .text.gzfree   0x000000008781cc4e        0x6 lib/built-in.o
                0x000000008781cc4e                gzfree
 .text.zunzip   0x000000008781cc54       0xb0 lib/built-in.o
                0x000000008781cc54                zunzip
 .text.gunzip   0x000000008781cd04       0x74 lib/built-in.o
                0x000000008781cd04                gunzip
 .text.initcall_run_list
                0x000000008781cd78       0x40 lib/built-in.o
                0x000000008781cd78                initcall_run_list
 .text.lmb_add_region
                0x000000008781cdb8       0xf6 lib/built-in.o
 .text.lmb_init
                0x000000008781ceae       0x16 lib/built-in.o
                0x000000008781ceae                lmb_init
 .text.lmb_add  0x000000008781cec4        0x4 lib/built-in.o
                0x000000008781cec4                lmb_add
 .text.lmb_free
                0x000000008781cec8       0x88 lib/built-in.o
                0x000000008781cec8                lmb_free
 .text.lmb_reserve
                0x000000008781cf50        0x6 lib/built-in.o
                0x000000008781cf50                lmb_reserve
 .text.__lmb_alloc_base
                0x000000008781cf56       0xbc lib/built-in.o
                0x000000008781cf56                __lmb_alloc_base
 *fill*         0x000000008781d012        0x2 
 .text.lmb_alloc_base
                0x000000008781d014       0x20 lib/built-in.o
                0x000000008781d014                lmb_alloc_base
 .text.lmb_alloc
                0x000000008781d034        0x6 lib/built-in.o
                0x000000008781d034                lmb_alloc
 .text.board_lmb_reserve
                0x000000008781d03a        0x2 lib/built-in.o
                0x000000008781d03a                board_lmb_reserve
 .text.string_to_ip
                0x000000008781d03c       0x36 lib/built-in.o
                0x000000008781d03c                string_to_ip
 *fill*         0x000000008781d072        0x2 
 .text.qsort    0x000000008781d074       0x88 lib/built-in.o
                0x000000008781d074                qsort
 .text.strcmp_compar
                0x000000008781d0fc        0x8 lib/built-in.o
                0x000000008781d0fc                strcmp_compar
 .text.cmpkey   0x000000008781d104        0xc lib/built-in.o
 .text._hdelete.isra.0
                0x000000008781d110       0x30 lib/built-in.o
 .text.drop_var_from_set.part.1
                0x000000008781d140       0x30 lib/built-in.o
 .text.match_string.isra.2
                0x000000008781d170       0x40 lib/built-in.o
 .text.hcreate_r
                0x000000008781d1b0       0x60 lib/built-in.o
                0x000000008781d1b0                hcreate_r
 .text.hdestroy_r
                0x000000008781d210       0x48 lib/built-in.o
                0x000000008781d210                hdestroy_r
 .text.hmatch_r
                0x000000008781d258       0x5c lib/built-in.o
                0x000000008781d258                hmatch_r
 .text.hsearch_r
                0x000000008781d2b4      0x2c4 lib/built-in.o
                0x000000008781d2b4                hsearch_r
 .text.hdelete_r
                0x000000008781d578       0x80 lib/built-in.o
                0x000000008781d578                hdelete_r
 .text.hexport_r
                0x000000008781d5f8      0x1d8 lib/built-in.o
                0x000000008781d5f8                hexport_r
 .text.himport_r
                0x000000008781d7d0      0x240 lib/built-in.o
                0x000000008781d7d0                himport_r
 .text.hwalk_r  0x000000008781da10       0x30 lib/built-in.o
                0x000000008781da10                hwalk_r
 .text.display_options
                0x000000008781da40       0x18 lib/built-in.o
                0x000000008781da40                display_options
 .text.print_size
                0x000000008781da58       0xe0 lib/built-in.o
                0x000000008781da58                print_size
 .text.print_buffer
                0x000000008781db38      0x120 lib/built-in.o
                0x000000008781db38                print_buffer
 .text.crc32_no_comp
                0x000000008781dc58       0x8c lib/built-in.o
                0x000000008781dc58                crc32_no_comp
 .text.crc32    0x000000008781dce4        0xc lib/built-in.o
                0x000000008781dce4                crc32
 .text.crc32_wd
                0x000000008781dcf0        0x4 lib/built-in.o
                0x000000008781dcf0                crc32_wd
 .text.__div64_32
                0x000000008781dcf4       0x7e lib/built-in.o
                0x000000008781dcf4                __div64_32
 *fill*         0x000000008781dd72        0x2 
 .text.hang     0x000000008781dd74       0x18 lib/built-in.o
                0x000000008781dd74                hang
 .text.skip_spaces
                0x000000008781dd8c       0x18 lib/built-in.o
                0x000000008781dd8c                skip_spaces
 .text.strim    0x000000008781dda4       0x34 lib/built-in.o
                0x000000008781dda4                strim
 .text.strcpy   0x000000008781ddd8       0x10 lib/built-in.o
                0x000000008781ddd8                strcpy
 .text.strncpy  0x000000008781dde8       0x18 lib/built-in.o
                0x000000008781dde8                strncpy
 .text.strcat   0x000000008781de00       0x1e lib/built-in.o
                0x000000008781de00                strcat
 .text.strncat  0x000000008781de1e       0x2a lib/built-in.o
                0x000000008781de1e                strncat
 .text.strcmp   0x000000008781de48       0x16 lib/built-in.o
                0x000000008781de48                strcmp
 .text.strncmp  0x000000008781de5e       0x22 lib/built-in.o
                0x000000008781de5e                strncmp
 .text.strchr   0x000000008781de80       0x18 lib/built-in.o
                0x000000008781de80                strchr
 .text.strlen   0x000000008781de98       0x10 lib/built-in.o
                0x000000008781de98                strlen
 .text.strrchr  0x000000008781dea8       0x20 lib/built-in.o
                0x000000008781dea8                strrchr
 .text.strnlen  0x000000008781dec8       0x18 lib/built-in.o
                0x000000008781dec8                strnlen
 .text.strdup   0x000000008781dee0       0x22 lib/built-in.o
                0x000000008781dee0                strdup
 .text.strpbrk  0x000000008781df02       0x20 lib/built-in.o
                0x000000008781df02                strpbrk
 .text.memset   0x000000008781df22       0x46 lib/built-in.o
                0x000000008781df22                memset
 .text.memcpy   0x000000008781df68       0x4c lib/built-in.o
                0x000000008781df68                memcpy
 .text.strlcpy  0x000000008781dfb4       0x2e lib/built-in.o
                0x000000008781dfb4                strlcpy
 .text.memmove  0x000000008781dfe2       0x32 lib/built-in.o
                0x000000008781dfe2                memmove
 .text.memcmp   0x000000008781e014       0x1e lib/built-in.o
                0x000000008781e014                memcmp
 .text.strstr   0x000000008781e032       0x48 lib/built-in.o
                0x000000008781e032                strstr
 .text.memchr   0x000000008781e07a       0x1c lib/built-in.o
                0x000000008781e07a                memchr
 *fill*         0x000000008781e096        0x2 
 .text.udelay   0x000000008781e098       0x20 lib/built-in.o
                0x000000008781e098                udelay
 .text.mdelay   0x000000008781e0b8       0x14 lib/built-in.o
                0x000000008781e0b8                mdelay
 .text.put_dec_trunc
                0x000000008781e0cc       0x9a lib/built-in.o
 *fill*         0x000000008781e166        0x2 
 .text.put_dec  0x000000008781e168       0xf0 lib/built-in.o
 .text.string.isra.0
                0x000000008781e258       0x60 lib/built-in.o
 .text.number.isra.4
                0x000000008781e2b8      0x1b0 lib/built-in.o
 .text.vsnprintf_internal.isra.6
                0x000000008781e468      0x420 lib/built-in.o
 .text.simple_strtoul
                0x000000008781e888       0x70 lib/built-in.o
                0x000000008781e888                simple_strtoul
 .text.strict_strtoul
                0x000000008781e8f8       0x42 lib/built-in.o
                0x000000008781e8f8                strict_strtoul
 .text.simple_strtol
                0x000000008781e93a       0x1a lib/built-in.o
                0x000000008781e93a                simple_strtol
 .text.ustrtoul
                0x000000008781e954       0x3c lib/built-in.o
                0x000000008781e954                ustrtoul
 .text.simple_strtoull
                0x000000008781e990       0x9c lib/built-in.o
                0x000000008781e990                simple_strtoull
 .text.ustrtoull
                0x000000008781ea2c       0x4e lib/built-in.o
                0x000000008781ea2c                ustrtoull
 .text.vsprintf
                0x000000008781ea7a        0x4 lib/built-in.o
                0x000000008781ea7a                vsprintf
 .text.sprintf  0x000000008781ea7e       0x1a lib/built-in.o
                0x000000008781ea7e                sprintf
 .text.panic    0x000000008781ea98       0x30 lib/built-in.o
                0x000000008781ea98                panic
 .text.simple_itoa
                0x000000008781eac8       0x38 lib/built-in.o
                0x000000008781eac8                simple_itoa
 .text.compute_ip_checksum
                0x000000008781eb00       0x46 net/built-in.o
                0x000000008781eb00                compute_ip_checksum
 .text.ip_checksum_ok
                0x000000008781eb46       0x14 net/built-in.o
                0x000000008781eb46                ip_checksum_ok
 *fill*         0x000000008781eb5a        0x2 
 .text.ArpInit  0x000000008781eb5c       0x38 net/built-in.o
                0x000000008781eb5c                ArpInit
 .text.arp_raw_request
                0x000000008781eb94       0x90 net/built-in.o
                0x000000008781eb94                arp_raw_request
 .text.ArpRequest
                0x000000008781ec24       0x58 net/built-in.o
                0x000000008781ec24                ArpRequest
 .text.ArpTimeoutCheck
                0x000000008781ec7c       0x58 net/built-in.o
                0x000000008781ec7c                ArpTimeoutCheck
 .text.ArpReceive
                0x000000008781ecd4      0x15c net/built-in.o
                0x000000008781ecd4                ArpReceive
 .text.DhcpOptionsProcess
                0x000000008781ee30      0x158 net/built-in.o
 .text.DhcpHandler
                0x000000008781ef88      0x32c net/built-in.o
 .text.BootpReset
                0x000000008781f2b4       0x2c net/built-in.o
                0x000000008781f2b4                BootpReset
 .text.BootpRequest
                0x000000008781f2e0      0x1fc net/built-in.o
                0x000000008781f2e0                BootpRequest
 .text.BootpTimeout
                0x000000008781f4dc       0x54 net/built-in.o
 .text.DhcpRequest
                0x000000008781f530        0x4 net/built-in.o
                0x000000008781f530                DhcpRequest
 .text.__def_eth_init
                0x000000008781f534        0x6 net/built-in.o
 *fill*         0x000000008781f53a        0x2 
 .text.eth_current_changed
                0x000000008781f53c       0x38 net/built-in.o
 .text.eth_parse_enetaddr
                0x000000008781f574       0x30 net/built-in.o
                0x000000008781f574                eth_parse_enetaddr
 .text.eth_getenv_enetaddr
                0x000000008781f5a4       0x34 net/built-in.o
                0x000000008781f5a4                eth_getenv_enetaddr
 .text.eth_setenv_enetaddr
                0x000000008781f5d8       0x20 net/built-in.o
                0x000000008781f5d8                eth_setenv_enetaddr
 .text.eth_getenv_enetaddr_by_index
                0x000000008781f5f8       0x30 net/built-in.o
                0x000000008781f5f8                eth_getenv_enetaddr_by_index
 .text.eth_get_dev_by_index
                0x000000008781f628       0x20 net/built-in.o
                0x000000008781f628                eth_get_dev_by_index
 .text.eth_get_dev_index
                0x000000008781f648       0x14 net/built-in.o
                0x000000008781f648                eth_get_dev_index
 .text.eth_write_hwaddr
                0x000000008781f65c      0x154 net/built-in.o
                0x000000008781f65c                eth_write_hwaddr
 .text.eth_register
                0x000000008781f7b0       0x48 net/built-in.o
                0x000000008781f7b0                eth_register
 .text.eth_unregister
                0x000000008781f7f8       0x54 net/built-in.o
                0x000000008781f7f8                eth_unregister
 .text.eth_initialize
                0x000000008781f84c      0x130 net/built-in.o
                0x000000008781f84c                eth_initialize
 .text.eth_halt
                0x000000008781f97c       0x18 net/built-in.o
                0x000000008781f97c                eth_halt
 .text.eth_send
                0x000000008781f994       0x24 net/built-in.o
                0x000000008781f994                eth_send
 .text.eth_rx   0x000000008781f9b8       0x14 net/built-in.o
                0x000000008781f9b8                eth_rx
 .text.eth_try_another
                0x000000008781f9cc       0x54 net/built-in.o
                0x000000008781f9cc                eth_try_another
 .text.eth_init
                0x000000008781fa20       0x7c net/built-in.o
                0x000000008781fa20                eth_init
 .text.eth_set_current
                0x000000008781fa9c       0x5c net/built-in.o
                0x000000008781fa9c                eth_set_current
 .text.eth_get_name
                0x000000008781faf8       0x18 net/built-in.o
                0x000000008781faf8                eth_get_name
 .text.net_clear_handlers
                0x000000008781fb10       0x24 net/built-in.o
 .text.startAgainTimeout
                0x000000008781fb34        0xc net/built-in.o
 .text.dummy_handler
                0x000000008781fb40        0x2 net/built-in.o
 *fill*         0x000000008781fb42        0x2 
 .text.net_auto_load
                0x000000008781fb44       0x40 net/built-in.o
                0x000000008781fb44                net_auto_load
 .text.NetStartAgain
                0x000000008781fb84       0xd8 net/built-in.o
                0x000000008781fb84                NetStartAgain
 .text.net_set_udp_handler
                0x000000008781fc5c       0x18 net/built-in.o
                0x000000008781fc5c                net_set_udp_handler
 .text.net_get_arp_handler
                0x000000008781fc74        0xc net/built-in.o
                0x000000008781fc74                net_get_arp_handler
 .text.NetSetTimeout
                0x000000008781fc80       0x3c net/built-in.o
                0x000000008781fc80                NetSetTimeout
 .text.NetReceive
                0x000000008781fcbc      0x1b8 net/built-in.o
                0x000000008781fcbc                NetReceive
 .text.NetEthHdrSize
                0x000000008781fe74       0x2c net/built-in.o
                0x000000008781fe74                NetEthHdrSize
 .text.NetSetEther
                0x000000008781fea0       0x64 net/built-in.o
                0x000000008781fea0                NetSetEther
 .text.net_update_ether
                0x000000008781ff04       0x54 net/built-in.o
                0x000000008781ff04                net_update_ether
 .text.net_set_ip_header
                0x000000008781ff58       0x58 net/built-in.o
                0x000000008781ff58                net_set_ip_header
 .text.net_set_udp_header
                0x000000008781ffb0       0x50 net/built-in.o
                0x000000008781ffb0                net_set_udp_header
 .text.NetSendUDPPacket
                0x0000000087820000       0xb0 net/built-in.o
                0x0000000087820000                NetSendUDPPacket
 .text.copy_filename
                0x00000000878200b0       0x2c net/built-in.o
                0x00000000878200b0                copy_filename
 .text.on_bootfile
                0x00000000878200dc       0x18 net/built-in.o
 .text.ip_to_string
                0x00000000878200f4       0x28 net/built-in.o
                0x00000000878200f4                ip_to_string
 .text.string_to_VLAN
                0x000000008782011c       0x28 net/built-in.o
                0x000000008782011c                string_to_VLAN
 .text.getenv_VLAN
                0x0000000087820144        0xe net/built-in.o
                0x0000000087820144                getenv_VLAN
 *fill*         0x0000000087820152        0x2 
 .text.NetInitLoop
                0x0000000087820154       0xb0 net/built-in.o
 .text.net_init
                0x0000000087820204       0x50 net/built-in.o
                0x0000000087820204                net_init
 .text.NetLoop  0x0000000087820254      0x238 net/built-in.o
                0x0000000087820254                NetLoop
 .text.rpc_lookup_reply
                0x000000008782048c       0x68 net/built-in.o
 .text.nfs_mount_reply
                0x00000000878204f4       0x60 net/built-in.o
 .text.nfs_umountall_reply
                0x0000000087820554       0x58 net/built-in.o
 .text.nfs_lookup_reply
                0x00000000878205ac       0x54 net/built-in.o
 .text.nfs_readlink_reply
                0x0000000087820600       0x90 net/built-in.o
 .text.basename
                0x0000000087820690       0x20 net/built-in.o
 .text.rpc_add_credentials
                0x00000000878206b0       0x7c net/built-in.o
 .text.rpc_req  0x000000008782072c       0xa8 net/built-in.o
 .text.nfs_mount_req
                0x00000000878207d4       0x6c net/built-in.o
 .text.nfs_umountall_req
                0x0000000087820840       0x3c net/built-in.o
 .text.nfs_lookup_req
                0x000000008782087c       0x78 net/built-in.o
 .text.nfs_read_req
                0x00000000878208f4       0x4c net/built-in.o
 .text.nfs_readlink_req
                0x0000000087820940       0x3c net/built-in.o
 .text.nfs_read_reply.isra.0
                0x000000008782097c       0xbc net/built-in.o
 .text.NfsSend  0x0000000087820a38       0xac net/built-in.o
 .text.NfsHandler
                0x0000000087820ae4      0x168 net/built-in.o
 .text.NfsTimeout
                0x0000000087820c4c       0x4c net/built-in.o
 .text.NfsStart
                0x0000000087820c98      0x19c net/built-in.o
                0x0000000087820c98                NfsStart
 .text.ping_timeout
                0x0000000087820e34       0x14 net/built-in.o
 .text.ping_start
                0x0000000087820e48       0xc4 net/built-in.o
                0x0000000087820e48                ping_start
 .text.ping_receive
                0x0000000087820f0c       0x94 net/built-in.o
                0x0000000087820f0c                ping_receive
 .text.TftpSend
                0x0000000087820fa0      0x12c net/built-in.o
 .text.TftpHandler
                0x00000000878210cc      0x260 net/built-in.o
 .text.TftpTimeout
                0x000000008782132c       0x64 net/built-in.o
 .text.TftpStart
                0x0000000087821390      0x23c net/built-in.o
                0x0000000087821390                TftpStart
 .text.do_dm    0x00000000878215cc       0x40 test/dm/built-in.o
 .text.do_dm_dump_uclass
                0x000000008782160c       0x90 test/dm/built-in.o
 .text.show_devices
                0x000000008782169c       0xb4 test/dm/built-in.o
 .text.do_dm_dump_all
                0x0000000087821750       0x30 test/dm/built-in.o
 .text.raise    0x0000000087821780       0x14 arch/arm/lib/eabi_compat.o
                0x0000000087821780                raise
 *fill*         0x0000000087821794        0x4 
 .text          0x0000000087821798      0x278 /usr/lib/gcc-cross/arm-linux-gnueabihf/5/libgcc.a(_udivsi3.o)
                0x0000000087821798                __udivsi3
                0x0000000087821798                __aeabi_uidiv
                0x00000000878219f4                __aeabi_uidivmod
 .text          0x0000000087821a10      0x2b0 /usr/lib/gcc-cross/arm-linux-gnueabihf/5/libgcc.a(_divsi3.o)
                0x0000000087821a10                __aeabi_idiv
                0x0000000087821a10                __divsi3
                0x0000000087821ca4                __aeabi_idivmod
 .text          0x0000000087821cc0       0x18 /usr/lib/gcc-cross/arm-linux-gnueabihf/5/libgcc.a(_lshrdi3.o)
                0x0000000087821cc0                __aeabi_llsr
                0x0000000087821cc0                __lshrdi3
 .text          0x0000000087821cd8       0x18 /usr/lib/gcc-cross/arm-linux-gnueabihf/5/libgcc.a(_ashldi3.o)
                0x0000000087821cd8                __ashldi3
                0x0000000087821cd8                __aeabi_llsl
 .text          0x0000000087821cf0        0xc /usr/lib/gcc-cross/arm-linux-gnueabihf/5/libgcc.a(_dvmd_lnx.o)
                0x0000000087821cf0                __aeabi_ldiv0
                0x0000000087821cf0                __aeabi_idiv0

.glue_7         0x0000000087821cfc        0x0
 .glue_7        0x0000000087821cfc        0x0 linker stubs

.glue_7t        0x0000000087821cfc        0x0
 .glue_7t       0x0000000087821cfc        0x0 linker stubs

.vfp11_veneer   0x0000000087821cfc        0x0
 .vfp11_veneer  0x0000000087821cfc        0x0 linker stubs

.v4_bx          0x0000000087821cfc        0x0
 .v4_bx         0x0000000087821cfc        0x0 linker stubs

.iplt           0x0000000087821cfc        0x0
 .iplt          0x0000000087821cfc        0x0 arch/arm/cpu/armv7/start.o
                0x0000000087821cfc                . = ALIGN (0x4)

.rodata         0x0000000087821d00     0xd9fc
 *(SORT(.rodata*))
 .rodata.board_recognition_pads
                0x0000000087821d00       0x10 board/udoo/udoo_neo/built-in.o
                0x0000000087821d00                board_recognition_pads
 .rodata.fec1_pads
                0x0000000087821d10       0x60 board/udoo/udoo_neo/built-in.o
 .rodata.gpio_pads
                0x0000000087821d70       0x78 board/udoo/udoo_neo/built-in.o
 .rodata.peri_3v3_pads
                0x0000000087821de8        0x8 board/udoo/udoo_neo/built-in.o
 .rodata.phy_control_pads
                0x0000000087821df0        0x8 board/udoo/udoo_neo/built-in.o
 .rodata.quadspi_pads
                0x0000000087821df8       0x30 board/udoo/udoo_neo/built-in.o
 .rodata.uart1_pads
                0x0000000087821e28       0x10 board/udoo/udoo_neo/built-in.o
 .rodata.usb_otg_pads
                0x0000000087821e38       0x18 board/udoo/udoo_neo/built-in.o
 .rodata.usdhc2_pads
                0x0000000087821e50       0x40 board/udoo/udoo_neo/built-in.o
 .rodata.usdhc3_pads
                0x0000000087821e90       0x30 board/udoo/udoo_neo/built-in.o
 .rodata.wl1831_control_pads
                0x0000000087821ec0       0x10 board/udoo/udoo_neo/built-in.o
 .rodata        0x0000000087821ed0       0x80 arch/arm/lib/built-in.o
 .rodata        0x0000000087821f50        0xc drivers/power/built-in.o
 .rodata.CSWTCH.11
                0x0000000087821f5c       0x88 arch/arm/imx-common/built-in.o
 .rodata.CSWTCH.27
                0x0000000087821fe4       0x14 common/built-in.o
 .rodata.CSWTCH.28
                0x0000000087821ff8       0x20 common/built-in.o
 .rodata.asix_dongles
                0x0000000087822018       0x68 drivers/usb/eth/built-in.o
 .rodata.block_drvr
                0x0000000087822080       0x24 disk/built-in.o
 .rodata.boot_os
                0x00000000878220a4       0x48 common/built-in.o
 .rodata.cpu_ctrl_mask
                0x00000000878220ec       0x10 arch/arm/cpu/armv7/built-in.o
 .rodata.cpu_reset_mask
                0x00000000878220fc       0x10 arch/arm/cpu/armv7/built-in.o
 .rodata.crc_table
                0x000000008782210c      0x400 lib/built-in.o
 .rodata.desc_and_len_tbl
                0x000000008782250c       0x30 common/built-in.o
 .rodata.env_flags_varaccess_mask
                0x000000008782253c       0x10 common/built-in.o
 .rodata.esdhc_ops
                0x000000008782254c       0x14 drivers/mmc/built-in.o
 .rodata.ext_csd_bits.7316
                0x0000000087822560       0x14 drivers/mmc/built-in.o
 .rodata.ext_to_hostcaps.7317
                0x0000000087822574       0x1c drivers/mmc/built-in.o
 .rodata.fbase  0x0000000087822590       0x10 drivers/mmc/built-in.o
 .rodata.fdt_errtable
                0x00000000878225a0       0x34 lib/built-in.o
 .rodata.gpio_ports
                0x00000000878225d4       0x1c drivers/gpio/built-in.o
 .rodata.i2c_bases
                0x00000000878225f0       0x10 arch/arm/imx-common/built-in.o
 .rodata.i2c_bases
                0x0000000087822600       0x10 drivers/i2c/built-in.o
 .rodata.imx6_thermal_plat
                0x0000000087822610        0xc arch/arm/cpu/armv7/built-in.o
 .rodata.imx_thermal_ops
                0x000000008782261c        0x4 drivers/built-in.o
 .rodata.multipliers
                0x0000000087822620       0x40 drivers/mmc/built-in.o
 .rodata.op_adv
                0x0000000087822660      0x100 common/built-in.o
                0x0000000087822660                op_adv
 .rodata.op_table
                0x0000000087822760       0x68 common/built-in.o
 .rodata.phy_bases
                0x00000000878227c8        0x8 drivers/usb/host/built-in.o
 .rodata.prob_dev
                0x00000000878227d0       0x18 drivers/usb/eth/built-in.o
 .rodata.reg_0_5_desc_tbl
                0x00000000878227e8       0x30 common/built-in.o
 .rodata.reg_0_desc_tbl
                0x0000000087822818       0x78 common/built-in.o
 .rodata.reg_1_desc_tbl
                0x0000000087822890       0xc0 common/built-in.o
 .rodata.reg_2_desc_tbl
                0x0000000087822950        0xc common/built-in.o
 .rodata.reg_3_desc_tbl
                0x000000008782295c       0x24 common/built-in.o
 .rodata.reg_4_desc_tbl
                0x0000000087822980       0x90 common/built-in.o
 .rodata.reg_5_desc_tbl
                0x0000000087822a10       0x90 common/built-in.o
 .rodata.root_info
                0x0000000087822aa0        0x8 drivers/built-in.o
 .rodata.spi_flash_params_table
                0x0000000087822aa8      0x3f0 drivers/mtd/spi/built-in.o
                0x0000000087822aa8                spi_flash_params_table
 .rodata.uimage_arch
                0x0000000087822e98      0x12c common/built-in.o
 .rodata.uimage_comp
                0x0000000087822fc4       0x48 common/built-in.o
 .rodata.uimage_os
                0x000000008782300c       0x6c common/built-in.o
 .rodata.uimage_type
                0x0000000087823078      0x114 common/built-in.o
 .rodata.widths.7318
                0x000000008782318c       0x14 drivers/mmc/built-in.o
 .rodata.crc16_tab
                0x00000000878231a0      0x200 lib/built-in.o
 .rodata.dbase.7151
                0x00000000878233a0       0x40 lib/built-in.o
 .rodata.dext.7152
                0x00000000878233e0       0x40 lib/built-in.o
 .rodata.distfix
                0x0000000087823420       0x80 lib/built-in.o
 .rodata.i2c_clk_div
                0x00000000878234a0       0xc8 drivers/i2c/built-in.o
 .rodata.lbase.7149
                0x0000000087823568       0x3e lib/built-in.o
 .rodata.lenfix
                0x00000000878235a6      0x800 lib/built-in.o
 .rodata.lext.7150
                0x0000000087823da6       0x3e lib/built-in.o
 .rodata.order.7245
                0x0000000087823de4       0x26 lib/built-in.o
 .rodata        0x0000000087823e0a        0x3 common/built-in.o
 .rodata        0x0000000087823e0d       0x3f drivers/usb/host/built-in.o
 .rodata        0x0000000087823e4c        0xe net/built-in.o
 .rodata.CSWTCH.66
                0x0000000087823e5a       0x16 common/built-in.o
 .rodata.__FUNCTION__.7779
                0x0000000087823e70       0x17 common/built-in.o
 .rodata.__func__.10938
                0x0000000087823e87        0xf board/udoo/udoo_neo/built-in.o
 .rodata.__func__.7013
                0x0000000087823e96       0x16 arch/arm/cpu/armv7/built-in.o
 .rodata.__func__.7023
                0x0000000087823eac       0x1b arch/arm/lib/built-in.o
 .rodata.__func__.7046
                0x0000000087823ec7        0xf fs/built-in.o
 .rodata.__func__.7063
                0x0000000087823ed6        0xf drivers/power/built-in.o
 .rodata.__func__.7075
                0x0000000087823ee5        0xa drivers/built-in.o
 .rodata.__func__.7076
                0x0000000087823eef        0xe drivers/power/built-in.o
 .rodata.__func__.7081
                0x0000000087823efd        0xf arch/arm/imx-common/built-in.o
 .rodata.__func__.7104
                0x0000000087823f0c        0xb drivers/built-in.o
 .rodata.__func__.7113
                0x0000000087823f17       0x15 drivers/power/pmic/built-in.o
 .rodata.__func__.7122
                0x0000000087823f2c        0xa drivers/built-in.o
 .rodata.__func__.7133
                0x0000000087823f36        0xe drivers/built-in.o
 .rodata.__func__.7139
                0x0000000087823f44        0xb drivers/power/built-in.o
 .rodata.__func__.7189
                0x0000000087823f4f       0x12 drivers/i2c/built-in.o
 .rodata.__func__.7196
                0x0000000087823f61       0x10 common/built-in.o
 .rodata.__func__.7212
                0x0000000087823f71        0xb common/built-in.o
 .rodata.__func__.7214
                0x0000000087823f7c        0xd drivers/i2c/built-in.o
 .rodata.__func__.7219
                0x0000000087823f89        0xb common/built-in.o
 .rodata.__func__.7257
                0x0000000087823f94       0x12 drivers/i2c/built-in.o
 .rodata.__func__.7540
                0x0000000087823fa6       0x19 common/built-in.o
 .rodata.__func__.7541
                0x0000000087823fbf        0xe common/built-in.o
 .rodata.__func__.7548
                0x0000000087823fcd        0xe common/built-in.o
 .rodata.__func__.7578
                0x0000000087823fdb        0xe common/built-in.o
 .rodata.__func__.7661
                0x0000000087823fe9       0x18 common/built-in.o
 .rodata.__func__.7845
                0x0000000087824001       0x11 drivers/usb/host/built-in.o
 .rodata.__func__.8068
                0x0000000087824012        0xe drivers/built-in.o
 .rodata.__func__.8106
                0x0000000087824020       0x10 drivers/net/built-in.o
 .rodata.__func__.8183
                0x0000000087824030       0x13 drivers/built-in.o
 .rodata.__func__.8192
                0x0000000087824043       0x11 drivers/built-in.o
 .rodata.__func__.8200
                0x0000000087824054        0xd drivers/built-in.o
 .rodata._ctype
                0x0000000087824061      0x100 lib/built-in.o
                0x0000000087824061                _ctype
 .rodata.default_environment
                0x0000000087824161      0x82d common/built-in.o
                0x0000000087824161                default_environment
 .rodata.delims.6862
                0x000000008782498e        0x3 common/built-in.o
 .rodata.digits.6859
                0x0000000087824991       0x10 lib/built-in.o
 .rodata.env_flags_varaccess_rep
                0x00000000878249a1        0x5 common/built-in.o
 .rodata.env_flags_vartype_rep
                0x00000000878249a6        0x7 common/built-in.o
 .rodata.erase_seq
                0x00000000878249ad        0x4 common/built-in.o
 .rodata.hex_asc
                0x00000000878249b1       0x11 lib/built-in.o
 .rodata.name.7111
                0x00000000878249c2        0xa drivers/power/pmic/built-in.o
 .rodata.names.6901
                0x00000000878249cc        0x6 lib/built-in.o
 .rodata.spi_read_cmds_array
                0x00000000878249d2        0x6 drivers/mtd/spi/built-in.o
 .rodata.str1.1
                0x00000000878249d8      0x303 arch/arm/cpu/armv7/built-in.o
                                        0x30d (size before relaxing)
 .rodata.str1.1
                0x0000000087824cdb      0x212 arch/arm/imx-common/built-in.o
                                        0x216 (size before relaxing)
 .rodata.str1.1
                0x0000000087824eed      0x389 arch/arm/lib/built-in.o
                                        0x42c (size before relaxing)
 .rodata.str1.1
                0x0000000087825276      0x410 board/udoo/udoo_neo/built-in.o
                                        0x426 (size before relaxing)
 .rodata.str1.1
                0x0000000087825686     0x7256 common/built-in.o
                                       0x78f7 (size before relaxing)
 .rodata.str1.1
                0x000000008782c8dc      0x436 disk/built-in.o
                                        0x469 (size before relaxing)
 .rodata.str1.1
                0x000000008782cd12      0x353 drivers/built-in.o
                                        0x372 (size before relaxing)
 .rodata.str1.1
                0x000000008782d065       0xf7 drivers/i2c/built-in.o
 .rodata.str1.1
                0x000000008782d15c      0x4aa drivers/mmc/built-in.o
                                        0x50d (size before relaxing)
 .rodata.str1.1
                0x000000008782d606      0x279 drivers/mtd/spi/built-in.o
                                        0x27c (size before relaxing)
 .rodata.str1.1
                0x000000008782d87f      0x166 drivers/net/built-in.o
                                        0x16e (size before relaxing)
 .rodata.str1.1
                0x000000008782d9e5      0x155 drivers/net/phy/built-in.o
                                        0x157 (size before relaxing)
 .rodata.str1.1
                0x000000008782db3a      0x25d drivers/power/built-in.o
                                        0x26f (size before relaxing)
 .rodata.str1.1
                0x000000008782dd97       0x1d drivers/power/pmic/built-in.o
 .rodata.str1.1
                0x000000008782ddb4       0x57 drivers/serial/built-in.o
                                         0x92 (size before relaxing)
 .rodata.str1.1
                0x000000008782de0b       0xd6 drivers/spi/built-in.o
 .rodata.str1.1
                0x000000008782dee1       0xeb drivers/usb/eth/built-in.o
 .rodata.str1.1
                0x000000008782dfcc      0x237 drivers/usb/host/built-in.o
 .rodata.str1.1
                0x000000008782e203      0x60d fs/built-in.o
                                        0x677 (size before relaxing)
 .rodata.str1.1
                0x000000008782e810      0x5be lib/built-in.o
                                        0x60c (size before relaxing)
 .rodata.str1.1
                0x000000008782edce      0x7c9 net/built-in.o
                                        0x946 (size before relaxing)
 .rodata.str1.1
                0x000000008782f597       0xf0 test/dm/built-in.o
                                        0x132 (size before relaxing)
 .rodata.str1.1
                0x000000008782f687       0x1b arch/arm/lib/eabi_compat.o
 .rodata.tab_seq
                0x000000008782f6a2        0x9 common/built-in.o
 .rodata.us_direction
                0x000000008782f6ab       0x20 common/built-in.o
 .rodata.version_string
                0x000000008782f6cb       0x31 common/built-in.o
                0x000000008782f6cb                version_string

.hash           0x000000008782f6fc       0x2c
 .hash          0x000000008782f6fc       0x2c arch/arm/cpu/armv7/start.o
                0x000000008782f728                . = ALIGN (0x4)

.data           0x000000008782f728     0x20c4
 *(.data*)
 .data.imx_ccm  0x000000008782f728        0x4 arch/arm/cpu/armv7/built-in.o
                0x000000008782f728                imx_ccm
 .data.reset_cause
                0x000000008782f72c        0x4 arch/arm/imx-common/built-in.o
 .data.i2c_pad_info1
                0x000000008782f730       0x30 board/udoo/udoo_neo/built-in.o
 .data.i2c_pad_info3
                0x000000008782f760       0x30 board/udoo/udoo_neo/built-in.o
                0x000000008782f760                i2c_pad_info3
 .data.usdhc_cfg
                0x000000008782f790       0x58 board/udoo/udoo_neo/built-in.o
 .data.reserved_list
                0x000000008782f7e8       0x84 common/built-in.o
 .data.init_sequence_f
                0x000000008782f86c       0x9c common/built-in.o
 .data.init_sequence_r
                0x000000008782f908       0x64 common/built-in.o
                0x000000008782f908                init_sequence_r
 .data.bootm_help_text
                0x000000008782f96c      0x38b common/built-in.o
 *fill*         0x000000008782fcf7        0x1 
 .data.cmd_bootm_sub
                0x000000008782fcf8       0xfc common/built-in.o
 .data.bootz_help_text
                0x000000008782fdf4      0x208 common/built-in.o
 .data.first_call
                0x000000008782fffc        0x8 common/built-in.o
 .data.env_name_spec
                0x0000000087830004        0x4 common/built-in.o
                0x0000000087830004                env_name_spec
 .data.source_help_text
                0x0000000087830008       0x4e common/built-in.o
 .data.root.7624
                0x0000000087830056        0x2 common/built-in.o
 .data.tabs.7707
                0x0000000087830058       0x21 common/built-in.o
 .data.fdt_help_text
                0x0000000087830079      0x5e3 common/built-in.o
 .data.i2c_help_text
                0x000000008783065c      0x37c common/built-in.o
 .data.cmd_i2c_sub
                0x00000000878309d8      0x16c common/built-in.o
 .data.i2c_dp_last_length
                0x0000000087830b44        0x4 common/built-in.o
 .data.do_echo  0x0000000087830b48        0x4 common/built-in.o
 .data.dp_last_length
                0x0000000087830b4c        0x4 common/built-in.o
 .data.curr_device
                0x0000000087830b50        0x4 common/built-in.o
 .data.cmd_mmc  0x0000000087830b54      0x118 common/built-in.o
 .data.cpu_help_text
                0x0000000087830c6c       0xe2 common/built-in.o
 *fill*         0x0000000087830d4e        0x2 
 .data.usb_stor_curr_dev
                0x0000000087830d50        0x4 common/built-in.o
 .data.imgextract_help_text
                0x0000000087830d54       0x55 common/built-in.o
 .data.env_help_text
                0x0000000087830da9      0x24f common/built-in.o
 .data.env_id   0x0000000087830ff8        0x4 common/built-in.o
 .data.cmd_env_sub
                0x0000000087830ffc      0x118 common/built-in.o
 .data.env_htab
                0x0000000087831114       0x10 common/built-in.o
                0x0000000087831114                env_htab
 .data.av_      0x0000000087831124      0x408 common/built-in.o
 .data.sbrk_base
                0x000000008783152c        0x4 common/built-in.o
 .data.trim_threshold
                0x0000000087831530        0x4 common/built-in.o
 .data.load_addr
                0x0000000087831534        0x4 common/built-in.o
                0x0000000087831534                load_addr
 .data.stdio_names
                0x0000000087831538        0xc common/built-in.o
                0x0000000087831538                stdio_names
 .data.hist_cur
                0x0000000087831544        0x4 common/built-in.o
 .data.cur_dev_num
                0x0000000087831548        0x4 drivers/mmc/built-in.o
 .data.phy_drivers
                0x000000008783154c        0x8 drivers/net/phy/built-in.o
 .data.genphy_driver
                0x0000000087831554       0x34 drivers/net/phy/built-in.o
 .data.ksz8895_driver
                0x0000000087831588       0x34 drivers/net/phy/built-in.o
 .data.KSZ8081_driver
                0x00000000878315bc       0x34 drivers/net/phy/built-in.o
 .data.KSZ804_driver
                0x00000000878315f0       0x34 drivers/net/phy/built-in.o
 .data.ksz9031_driver
                0x0000000087831624       0x34 drivers/net/phy/built-in.o
 .data.KS8721_driver
                0x0000000087831658       0x34 drivers/net/phy/built-in.o
 .data.pmic_list
                0x000000008783168c        0x8 drivers/power/built-in.o
 .data.mxc_serial_drv
                0x0000000087831694       0x30 drivers/serial/built-in.o
 .data.descriptor
                0x00000000878316c4       0x38 drivers/usb/host/built-in.o
 .data.fstypes  0x00000000878316fc       0x84 fs/built-in.o
 .data.ext4fs_indir3_blkno
                0x0000000087831780        0x4 fs/built-in.o
                0x0000000087831780                ext4fs_indir3_blkno
 .data.ext4fs_indir1_blkno
                0x0000000087831784        0x4 fs/built-in.o
                0x0000000087831784                ext4fs_indir1_blkno
 .data.ext4fs_indir2_blkno
                0x0000000087831788        0x4 fs/built-in.o
                0x0000000087831788                ext4fs_indir2_blkno
 .data.NetOurNativeVLAN
                0x000000008783178c        0x2 net/built-in.o
                0x000000008783178c                NetOurNativeVLAN
 .data.NetBcastAddr
                0x000000008783178e        0x6 net/built-in.o
                0x000000008783178e                NetBcastAddr
 .data.first_call.7260
                0x0000000087831794        0x4 net/built-in.o
 .data.NetOurVLAN
                0x0000000087831798        0x2 net/built-in.o
                0x0000000087831798                NetOurVLAN
 *fill*         0x000000008783179a        0x2 
 .data.nfs_offset
                0x000000008783179c        0x4 net/built-in.o
 .data.TftpTimeoutCountMax
                0x00000000878317a0        0x4 net/built-in.o
 .data.TftpRRQTimeoutCountMax
                0x00000000878317a4        0x4 net/built-in.o
                0x00000000878317a4                TftpRRQTimeoutCountMax
 .data.TftpBlkSizeOption
                0x00000000878317a8        0x2 net/built-in.o
 *fill*         0x00000000878317aa        0x2 
 .data.TftpTimeoutMSecs
                0x00000000878317ac        0x4 net/built-in.o
 .data.TftpBlkSize
                0x00000000878317b0        0x2 net/built-in.o
 *fill*         0x00000000878317b2        0x2 
 .data.test_commands
                0x00000000878317b4       0x38 test/dm/built-in.o

.got            0x00000000878317ec        0x0
 .got           0x00000000878317ec        0x0 arch/arm/cpu/armv7/start.o

.got.plt        0x00000000878317ec        0xc
 .got.plt       0x00000000878317ec        0xc arch/arm/cpu/armv7/start.o
                0x00000000878317ec                _GLOBAL_OFFSET_TABLE_

.igot.plt       0x00000000878317f8        0x0
 .igot.plt      0x00000000878317f8        0x0 arch/arm/cpu/armv7/start.o
                0x00000000878317f8                . = ALIGN (0x4)
                0x00000000878317f8                . = .
                0x00000000878317f8                . = ALIGN (0x4)

.u_boot_list    0x00000000878317f8      0xa40
 *(SORT(.u_boot_list*))
 .u_boot_list_2_cmd_1
                0x00000000878317f8        0x0 common/built-in.o
 .u_boot_list_2_cmd_2_base
                0x00000000878317f8       0x1c common/built-in.o
                0x00000000878317f8                _u_boot_list_2_cmd_2_base
 .u_boot_list_2_cmd_2_bdinfo
                0x0000000087831814       0x1c common/built-in.o
                0x0000000087831814                _u_boot_list_2_cmd_2_bdinfo
 .u_boot_list_2_cmd_2_bmode
                0x0000000087831830       0x1c arch/arm/imx-common/built-in.o
                0x0000000087831830                _u_boot_list_2_cmd_2_bmode
 .u_boot_list_2_cmd_2_boot
                0x000000008783184c       0x1c common/built-in.o
                0x000000008783184c                _u_boot_list_2_cmd_2_boot
 .u_boot_list_2_cmd_2_bootd
                0x0000000087831868       0x1c common/built-in.o
                0x0000000087831868                _u_boot_list_2_cmd_2_bootd
 .u_boot_list_2_cmd_2_bootm
                0x0000000087831884       0x1c common/built-in.o
                0x0000000087831884                _u_boot_list_2_cmd_2_bootm
 .u_boot_list_2_cmd_2_bootp
                0x00000000878318a0       0x1c common/built-in.o
                0x00000000878318a0                _u_boot_list_2_cmd_2_bootp
 .u_boot_list_2_cmd_2_bootz
                0x00000000878318bc       0x1c common/built-in.o
                0x00000000878318bc                _u_boot_list_2_cmd_2_bootz
 .u_boot_list_2_cmd_2_clocks
                0x00000000878318d8       0x1c arch/arm/cpu/armv7/built-in.o
                0x00000000878318d8                _u_boot_list_2_cmd_2_clocks
 .u_boot_list_2_cmd_2_cmp
                0x00000000878318f4       0x1c common/built-in.o
                0x00000000878318f4                _u_boot_list_2_cmd_2_cmp
 .u_boot_list_2_cmd_2_coninfo
                0x0000000087831910       0x1c common/built-in.o
                0x0000000087831910                _u_boot_list_2_cmd_2_coninfo
 .u_boot_list_2_cmd_2_cp
                0x000000008783192c       0x1c common/built-in.o
                0x000000008783192c                _u_boot_list_2_cmd_2_cp
 .u_boot_list_2_cmd_2_cpu
                0x0000000087831948       0x1c common/built-in.o
                0x0000000087831948                _u_boot_list_2_cmd_2_cpu
 .u_boot_list_2_cmd_2_crc32
                0x0000000087831964       0x1c common/built-in.o
                0x0000000087831964                _u_boot_list_2_cmd_2_crc32
 .u_boot_list_2_cmd_2_dcache
                0x0000000087831980       0x1c common/built-in.o
                0x0000000087831980                _u_boot_list_2_cmd_2_dcache
 .u_boot_list_2_cmd_2_dhcp
                0x000000008783199c       0x1c common/built-in.o
                0x000000008783199c                _u_boot_list_2_cmd_2_dhcp
 .u_boot_list_2_cmd_2_dm
                0x00000000878319b8       0x1c test/dm/built-in.o
                0x00000000878319b8                _u_boot_list_2_cmd_2_dm
 .u_boot_list_2_cmd_2_echo
                0x00000000878319d4       0x1c common/built-in.o
                0x00000000878319d4                _u_boot_list_2_cmd_2_echo
 .u_boot_list_2_cmd_2_editenv
                0x00000000878319f0       0x1c common/built-in.o
                0x00000000878319f0                _u_boot_list_2_cmd_2_editenv
 .u_boot_list_2_cmd_2_env
                0x0000000087831a0c       0x1c common/built-in.o
                0x0000000087831a0c                _u_boot_list_2_cmd_2_env
 .u_boot_list_2_cmd_2_erase
                0x0000000087831a28       0x1c common/built-in.o
                0x0000000087831a28                _u_boot_list_2_cmd_2_erase
 .u_boot_list_2_cmd_2_exit
                0x0000000087831a44       0x1c common/built-in.o
                0x0000000087831a44                _u_boot_list_2_cmd_2_exit
 .u_boot_list_2_cmd_2_ext2load
                0x0000000087831a60       0x1c common/built-in.o
                0x0000000087831a60                _u_boot_list_2_cmd_2_ext2load
 .u_boot_list_2_cmd_2_ext2ls
                0x0000000087831a7c       0x1c common/built-in.o
                0x0000000087831a7c                _u_boot_list_2_cmd_2_ext2ls
 .u_boot_list_2_cmd_2_false
                0x0000000087831a98       0x1c common/built-in.o
                0x0000000087831a98                _u_boot_list_2_cmd_2_false
 .u_boot_list_2_cmd_2_fatinfo
                0x0000000087831ab4       0x1c common/built-in.o
                0x0000000087831ab4                _u_boot_list_2_cmd_2_fatinfo
 .u_boot_list_2_cmd_2_fatload
                0x0000000087831ad0       0x1c common/built-in.o
                0x0000000087831ad0                _u_boot_list_2_cmd_2_fatload
 .u_boot_list_2_cmd_2_fatls
                0x0000000087831aec       0x1c common/built-in.o
                0x0000000087831aec                _u_boot_list_2_cmd_2_fatls
 .u_boot_list_2_cmd_2_fatsize
                0x0000000087831b08       0x1c common/built-in.o
                0x0000000087831b08                _u_boot_list_2_cmd_2_fatsize
 .u_boot_list_2_cmd_2_fdt
                0x0000000087831b24       0x1c common/built-in.o
                0x0000000087831b24                _u_boot_list_2_cmd_2_fdt
 .u_boot_list_2_cmd_2_flinfo
                0x0000000087831b40       0x1c common/built-in.o
                0x0000000087831b40                _u_boot_list_2_cmd_2_flinfo
 .u_boot_list_2_cmd_2_fuse
                0x0000000087831b5c       0x1c common/built-in.o
                0x0000000087831b5c                _u_boot_list_2_cmd_2_fuse
 .u_boot_list_2_cmd_2_go
                0x0000000087831b78       0x1c common/built-in.o
                0x0000000087831b78                _u_boot_list_2_cmd_2_go
 .u_boot_list_2_cmd_2_help
                0x0000000087831b94       0x1c common/built-in.o
                0x0000000087831b94                _u_boot_list_2_cmd_2_help
 .u_boot_list_2_cmd_2_i2c
                0x0000000087831bb0       0x1c common/built-in.o
                0x0000000087831bb0                _u_boot_list_2_cmd_2_i2c
 .u_boot_list_2_cmd_2_icache
                0x0000000087831bcc       0x1c common/built-in.o
                0x0000000087831bcc                _u_boot_list_2_cmd_2_icache
 .u_boot_list_2_cmd_2_iminfo
                0x0000000087831be8       0x1c common/built-in.o
                0x0000000087831be8                _u_boot_list_2_cmd_2_iminfo
 .u_boot_list_2_cmd_2_imxtract
                0x0000000087831c04       0x1c common/built-in.o
                0x0000000087831c04                _u_boot_list_2_cmd_2_imxtract
 .u_boot_list_2_cmd_2_itest
                0x0000000087831c20       0x1c common/built-in.o
                0x0000000087831c20                _u_boot_list_2_cmd_2_itest
 .u_boot_list_2_cmd_2_loadb
                0x0000000087831c3c       0x1c common/built-in.o
                0x0000000087831c3c                _u_boot_list_2_cmd_2_loadb
 .u_boot_list_2_cmd_2_loads
                0x0000000087831c58       0x1c common/built-in.o
                0x0000000087831c58                _u_boot_list_2_cmd_2_loads
 .u_boot_list_2_cmd_2_loadx
                0x0000000087831c74       0x1c common/built-in.o
                0x0000000087831c74                _u_boot_list_2_cmd_2_loadx
 .u_boot_list_2_cmd_2_loady
                0x0000000087831c90       0x1c common/built-in.o
                0x0000000087831c90                _u_boot_list_2_cmd_2_loady
 .u_boot_list_2_cmd_2_loop
                0x0000000087831cac       0x1c common/built-in.o
                0x0000000087831cac                _u_boot_list_2_cmd_2_loop
 .u_boot_list_2_cmd_2_md
                0x0000000087831cc8       0x1c common/built-in.o
                0x0000000087831cc8                _u_boot_list_2_cmd_2_md
 .u_boot_list_2_cmd_2_mdio
                0x0000000087831ce4       0x1c common/built-in.o
                0x0000000087831ce4                _u_boot_list_2_cmd_2_mdio
 .u_boot_list_2_cmd_2_mii
                0x0000000087831d00       0x1c common/built-in.o
                0x0000000087831d00                _u_boot_list_2_cmd_2_mii
 .u_boot_list_2_cmd_2_mm
                0x0000000087831d1c       0x1c common/built-in.o
                0x0000000087831d1c                _u_boot_list_2_cmd_2_mm
 .u_boot_list_2_cmd_2_mmc
                0x0000000087831d38       0x1c common/built-in.o
                0x0000000087831d38                _u_boot_list_2_cmd_2_mmc
 .u_boot_list_2_cmd_2_mmcinfo
                0x0000000087831d54       0x1c common/built-in.o
                0x0000000087831d54                _u_boot_list_2_cmd_2_mmcinfo
 .u_boot_list_2_cmd_2_mtest
                0x0000000087831d70       0x1c common/built-in.o
                0x0000000087831d70                _u_boot_list_2_cmd_2_mtest
 .u_boot_list_2_cmd_2_mw
                0x0000000087831d8c       0x1c common/built-in.o
                0x0000000087831d8c                _u_boot_list_2_cmd_2_mw
 .u_boot_list_2_cmd_2_nfs
                0x0000000087831da8       0x1c common/built-in.o
                0x0000000087831da8                _u_boot_list_2_cmd_2_nfs
 .u_boot_list_2_cmd_2_nm
                0x0000000087831dc4       0x1c common/built-in.o
                0x0000000087831dc4                _u_boot_list_2_cmd_2_nm
 .u_boot_list_2_cmd_2_ping
                0x0000000087831de0       0x1c common/built-in.o
                0x0000000087831de0                _u_boot_list_2_cmd_2_ping
 .u_boot_list_2_cmd_2_pmic
                0x0000000087831dfc       0x1c drivers/power/built-in.o
                0x0000000087831dfc                _u_boot_list_2_cmd_2_pmic
 .u_boot_list_2_cmd_2_printenv
                0x0000000087831e18       0x1c common/built-in.o
                0x0000000087831e18                _u_boot_list_2_cmd_2_printenv
 .u_boot_list_2_cmd_2_protect
                0x0000000087831e34       0x1c common/built-in.o
                0x0000000087831e34                _u_boot_list_2_cmd_2_protect
 .u_boot_list_2_cmd_2_question_mark
                0x0000000087831e50       0x1c common/built-in.o
                0x0000000087831e50                _u_boot_list_2_cmd_2_question_mark
 .u_boot_list_2_cmd_2_reset
                0x0000000087831e6c       0x1c common/built-in.o
                0x0000000087831e6c                _u_boot_list_2_cmd_2_reset
 .u_boot_list_2_cmd_2_run
                0x0000000087831e88       0x1c common/built-in.o
                0x0000000087831e88                _u_boot_list_2_cmd_2_run
 .u_boot_list_2_cmd_2_saveenv
                0x0000000087831ea4       0x1c common/built-in.o
                0x0000000087831ea4                _u_boot_list_2_cmd_2_saveenv
 .u_boot_list_2_cmd_2_setenv
                0x0000000087831ec0       0x1c common/built-in.o
                0x0000000087831ec0                _u_boot_list_2_cmd_2_setenv
 .u_boot_list_2_cmd_2_setexpr
                0x0000000087831edc       0x1c common/built-in.o
                0x0000000087831edc                _u_boot_list_2_cmd_2_setexpr
 .u_boot_list_2_cmd_2_sf
                0x0000000087831ef8       0x1c common/built-in.o
                0x0000000087831ef8                _u_boot_list_2_cmd_2_sf
 .u_boot_list_2_cmd_2_showvar
                0x0000000087831f14       0x1c common/built-in.o
                0x0000000087831f14                _u_boot_list_2_cmd_2_showvar
 .u_boot_list_2_cmd_2_sleep
                0x0000000087831f30       0x1c common/built-in.o
                0x0000000087831f30                _u_boot_list_2_cmd_2_sleep
 .u_boot_list_2_cmd_2_source
                0x0000000087831f4c       0x1c common/built-in.o
                0x0000000087831f4c                _u_boot_list_2_cmd_2_source
 .u_boot_list_2_cmd_2_test
                0x0000000087831f68       0x1c common/built-in.o
                0x0000000087831f68                _u_boot_list_2_cmd_2_test
 .u_boot_list_2_cmd_2_tftpboot
                0x0000000087831f84       0x1c common/built-in.o
                0x0000000087831f84                _u_boot_list_2_cmd_2_tftpboot
 .u_boot_list_2_cmd_2_time
                0x0000000087831fa0       0x1c common/built-in.o
                0x0000000087831fa0                _u_boot_list_2_cmd_2_time
 .u_boot_list_2_cmd_2_true
                0x0000000087831fbc       0x1c common/built-in.o
                0x0000000087831fbc                _u_boot_list_2_cmd_2_true
 .u_boot_list_2_cmd_2_udooinit
                0x0000000087831fd8       0x1c board/udoo/udoo_neo/built-in.o
                0x0000000087831fd8                _u_boot_list_2_cmd_2_udooinit
 .u_boot_list_2_cmd_2_usb
                0x0000000087831ff4       0x1c common/built-in.o
                0x0000000087831ff4                _u_boot_list_2_cmd_2_usb
 .u_boot_list_2_cmd_2_usbboot
                0x0000000087832010       0x1c common/built-in.o
                0x0000000087832010                _u_boot_list_2_cmd_2_usbboot
 .u_boot_list_2_cmd_2_version
                0x000000008783202c       0x1c common/built-in.o
                0x000000008783202c                _u_boot_list_2_cmd_2_version
 .u_boot_list_2_cmd_3
                0x0000000087832048        0x0 common/built-in.o
 .u_boot_list_2_driver_1
                0x0000000087832048        0x0 drivers/built-in.o
 .u_boot_list_2_driver_2_imx_thermal
                0x0000000087832048       0x44 drivers/built-in.o
                0x0000000087832048                _u_boot_list_2_driver_2_imx_thermal
 .u_boot_list_2_driver_2_root_driver
                0x000000008783208c       0x44 drivers/built-in.o
                0x000000008783208c                _u_boot_list_2_driver_2_root_driver
 .u_boot_list_2_driver_3
                0x00000000878320d0        0x0 drivers/built-in.o
 .u_boot_list_2_driver_info_1
                0x00000000878320d0        0x0 drivers/built-in.o
 .u_boot_list_2_driver_info_2_imx6_thermal
                0x00000000878320d0        0x8 arch/arm/cpu/armv7/built-in.o
                0x00000000878320d0                _u_boot_list_2_driver_info_2_imx6_thermal
 .u_boot_list_2_driver_info_3
                0x00000000878320d8        0x0 drivers/built-in.o
 .u_boot_list_2_env_clbk_1
                0x00000000878320d8        0x0 common/built-in.o
 .u_boot_list_2_env_clbk_2_baudrate
                0x00000000878320d8        0x8 drivers/serial/built-in.o
                0x00000000878320d8                _u_boot_list_2_env_clbk_2_baudrate
 .u_boot_list_2_env_clbk_2_bootfile
                0x00000000878320e0        0x8 net/built-in.o
                0x00000000878320e0                _u_boot_list_2_env_clbk_2_bootfile
 .u_boot_list_2_env_clbk_2_callbacks
                0x00000000878320e8        0x8 common/built-in.o
                0x00000000878320e8                _u_boot_list_2_env_clbk_2_callbacks
 .u_boot_list_2_env_clbk_2_console
                0x00000000878320f0        0x8 common/built-in.o
                0x00000000878320f0                _u_boot_list_2_env_clbk_2_console
 .u_boot_list_2_env_clbk_2_flags
                0x00000000878320f8        0x8 common/built-in.o
                0x00000000878320f8                _u_boot_list_2_env_clbk_2_flags
 .u_boot_list_2_env_clbk_2_loadaddr
                0x0000000087832100        0x8 common/built-in.o
                0x0000000087832100                _u_boot_list_2_env_clbk_2_loadaddr
 .u_boot_list_2_env_clbk_3
                0x0000000087832108        0x0 common/built-in.o
 .u_boot_list_2_i2c_1
                0x0000000087832108        0x0 common/built-in.o
 .u_boot_list_2_i2c_1
                0x0000000087832108        0x0 drivers/i2c/built-in.o
 .u_boot_list_2_i2c_2_mxc0
                0x0000000087832108       0x2c drivers/i2c/built-in.o
                0x0000000087832108                _u_boot_list_2_i2c_2_mxc0
 .u_boot_list_2_i2c_2_mxc1
                0x0000000087832134       0x2c drivers/i2c/built-in.o
                0x0000000087832134                _u_boot_list_2_i2c_2_mxc1
 .u_boot_list_2_i2c_2_mxc2
                0x0000000087832160       0x2c drivers/i2c/built-in.o
                0x0000000087832160                _u_boot_list_2_i2c_2_mxc2
 .u_boot_list_2_i2c_2_mxc3
                0x000000008783218c       0x2c drivers/i2c/built-in.o
                0x000000008783218c                _u_boot_list_2_i2c_2_mxc3
 .u_boot_list_2_i2c_3
                0x00000000878321b8        0x0 common/built-in.o
 .u_boot_list_2_i2c_3
                0x00000000878321b8        0x0 drivers/i2c/built-in.o
 .u_boot_list_2_uclass_1
                0x00000000878321b8        0x0 drivers/built-in.o
 .u_boot_list_2_uclass_2_root
                0x00000000878321b8       0x40 drivers/built-in.o
                0x00000000878321b8                _u_boot_list_2_uclass_2_root
 .u_boot_list_2_uclass_2_thermal
                0x00000000878321f8       0x40 drivers/built-in.o
                0x00000000878321f8                _u_boot_list_2_uclass_2_thermal
 .u_boot_list_2_uclass_3
                0x0000000087832238        0x0 drivers/built-in.o
                0x0000000087832238                . = ALIGN (0x4)

.image_copy_end
                0x0000000087832238        0x0
 *(.__image_copy_end)
 .__image_copy_end
                0x0000000087832238        0x0 arch/arm/lib/built-in.o

.rel_dyn_start  0x0000000087832238        0x0
 *(.__rel_dyn_start)
 .__rel_dyn_start
                0x0000000087832238        0x0 arch/arm/lib/built-in.o

.rel.dyn        0x0000000087832238     0x76b0
 *(.rel*)
 .rel.got       0x0000000087832238        0x0 arch/arm/cpu/armv7/start.o
 .rel.plt       0x0000000087832238        0x0 arch/arm/cpu/armv7/start.o
 .rel.iplt      0x0000000087832238        0x0 arch/arm/cpu/armv7/start.o
 .rel.text      0x0000000087832238       0x20 arch/arm/cpu/armv7/start.o
 .rel.text.invalidate_dcache_range
                0x0000000087832258       0x18 arch/arm/cpu/armv7/start.o
 .rel.text.check_ldo_bypass
                0x0000000087832270       0x28 arch/arm/cpu/armv7/start.o
 .rel.text.check_1_2G
                0x0000000087832298        0x0 arch/arm/cpu/armv7/start.o
 .rel.text.set_arm_freq_400M
                0x0000000087832298        0x0 arch/arm/cpu/armv7/start.o
 .rel.text.prep_anatop_bypass
                0x0000000087832298        0x8 arch/arm/cpu/armv7/start.o
 .rel.text.set_anatop_bypass
                0x00000000878322a0        0x8 arch/arm/cpu/armv7/start.o
 .rel.text.finish_anatop_bypass
                0x00000000878322a8        0x8 arch/arm/cpu/armv7/start.o
 .rel.text.get_ipg_clk
                0x00000000878322b0        0x8 arch/arm/cpu/armv7/start.o
 .rel.text.enable_pll_video.constprop.2
                0x00000000878322b8        0x0 arch/arm/cpu/armv7/start.o
 .rel.text.get_uart_clk
                0x00000000878322b8        0x8 arch/arm/cpu/armv7/start.o
 .rel.text.mxc_get_pll_pfd
                0x00000000878322c0        0x8 arch/arm/cpu/armv7/start.o
 .rel.text.get_usdhc_clk
                0x00000000878322c8        0x8 arch/arm/cpu/armv7/start.o
 .rel.text.enable_ocotp_clk
                0x00000000878322d0        0x8 arch/arm/cpu/armv7/start.o
 .rel.text.enable_usboh3_clk
                0x00000000878322d8        0x8 arch/arm/cpu/armv7/start.o
 .rel.text.enable_uart_clk
                0x00000000878322e0        0x0 arch/arm/cpu/armv7/start.o
 .rel.text.enable_usdhc_clk
                0x00000000878322e0        0x0 arch/arm/cpu/armv7/start.o
 .rel.text.enable_i2c_clk
                0x00000000878322e0        0x8 arch/arm/cpu/armv7/start.o
 .rel.text.enable_spi_clk
                0x00000000878322e8        0x0 arch/arm/cpu/armv7/start.o
 .rel.text.get_periph_clk
                0x00000000878322e8        0x8 arch/arm/cpu/armv7/start.o
 .rel.text.get_axi_clk
                0x00000000878322f0        0x8 arch/arm/cpu/armv7/start.o
 .rel.text.enable_lvds
                0x00000000878322f8        0x0 arch/arm/cpu/armv7/start.o
 .rel.text.enable_lcdif_clock
                0x00000000878322f8        0x0 arch/arm/cpu/armv7/start.o
 .rel.text.mxs_set_lcdclk
                0x00000000878322f8        0x0 arch/arm/cpu/armv7/start.o
 .rel.text.enable_qspi_clk
                0x00000000878322f8        0x8 arch/arm/cpu/armv7/start.o
 .rel.text.mxs_set_vadcclk
                0x0000000087832300        0x0 arch/arm/cpu/armv7/start.o
 .rel.text.enable_fec_anatop_clock
                0x0000000087832300        0x8 arch/arm/cpu/armv7/start.o
 .rel.text.mxc_get_clock
                0x0000000087832308       0x10 arch/arm/cpu/armv7/start.o
 .rel.text.do_mx6_showclocks
                0x0000000087832318       0x88 arch/arm/cpu/armv7/start.o
 .rel.text.cpu_reset
                0x00000000878323a0        0x8 arch/arm/cpu/armv7/start.o
 .rel.text.cpu_status
                0x00000000878323a8       0x10 arch/arm/cpu/armv7/start.o
 .rel.text.cpu_release
                0x00000000878323b8        0x8 arch/arm/cpu/armv7/start.o
 .rel.text.cpu_disable
                0x00000000878323c0        0x8 arch/arm/cpu/armv7/start.o
 .rel.rodata.soc_boot_modes
                0x00000000878323c8        0x0 arch/arm/cpu/armv7/start.o
 .rel.u_boot_list_2_driver_info_2_imx6_thermal
                0x00000000878323c8       0x10 arch/arm/cpu/armv7/start.o
 .rel.u_boot_list_2_cmd_2_clocks
                0x00000000878323d8       0x20 arch/arm/cpu/armv7/start.o
 .rel.text.get_imx_reset_cause
                0x00000000878323f8        0x0 arch/arm/cpu/armv7/start.o
 .rel.text.imx_ddr_size
                0x00000000878323f8        0x0 arch/arm/cpu/armv7/start.o
 .rel.text.get_imx_type
                0x00000000878323f8       0x10 arch/arm/cpu/armv7/start.o
 .rel.text.print_cpuinfo
                0x0000000087832408       0x80 arch/arm/cpu/armv7/start.o
 .rel.text.set_chipselect_size
                0x0000000087832488        0x0 arch/arm/cpu/armv7/start.o
 .rel.text.force_idle_bus
                0x0000000087832488       0x18 arch/arm/cpu/armv7/start.o
 .rel.text.setup_i2c
                0x00000000878324a0       0x20 arch/arm/cpu/armv7/start.o
 .rel.text.create_usage
                0x00000000878324c0        0x0 arch/arm/cpu/armv7/start.o
 .rel.text.do_boot_mode
                0x00000000878324c0       0x10 arch/arm/cpu/armv7/start.o
 .rel.text.add_board_boot_modes
                0x00000000878324d0        0x0 arch/arm/cpu/armv7/start.o
 .rel.rodata.CSWTCH.11
                0x00000000878324d0      0x110 arch/arm/cpu/armv7/start.o
 .rel.u_boot_list_2_cmd_2_bmode
                0x00000000878325e0       0x18 arch/arm/cpu/armv7/start.o
 .rel.vectors   0x00000000878325f8       0x38 arch/arm/cpu/armv7/start.o
 .rel.text.relocate_vectors
                0x0000000087832630       0x20 arch/arm/cpu/armv7/start.o
 .rel.text.boot_jump_linux
                0x0000000087832650       0x28 arch/arm/cpu/armv7/start.o
 .rel.text.boot_prep_linux
                0x0000000087832678       0x18 arch/arm/cpu/armv7/start.o
 .rel.text.bootz_setup
                0x0000000087832690       0x10 arch/arm/cpu/armv7/start.o
 .rel.text.boot_prep_vxworks
                0x00000000878326a0       0x10 arch/arm/cpu/armv7/start.o
 .rel.text.v7_outer_cache_inval_range
                0x00000000878326b0       0x18 arch/arm/cpu/armv7/start.o
 .rel.text.interrupt_init
                0x00000000878326c8        0x8 arch/arm/cpu/armv7/start.o
 .rel.text.bad_mode
                0x00000000878326d0        0x8 arch/arm/cpu/armv7/start.o
 .rel.text.show_regs
                0x00000000878326d8       0x60 arch/arm/cpu/armv7/start.o
 .rel.text.do_undefined_instruction
                0x0000000087832738        0x8 arch/arm/cpu/armv7/start.o
 .rel.text.do_software_interrupt
                0x0000000087832740        0x8 arch/arm/cpu/armv7/start.o
 .rel.text.do_prefetch_abort
                0x0000000087832748        0x8 arch/arm/cpu/armv7/start.o
 .rel.text.do_data_abort
                0x0000000087832750        0x8 arch/arm/cpu/armv7/start.o
 .rel.text.do_not_used
                0x0000000087832758        0x8 arch/arm/cpu/armv7/start.o
 .rel.text.do_fiq
                0x0000000087832760        0x8 arch/arm/cpu/armv7/start.o
 .rel.text.do_irq
                0x0000000087832768        0x8 arch/arm/cpu/armv7/start.o
 .rel.text.do_reset
                0x0000000087832770        0x8 arch/arm/cpu/armv7/start.o
 .rel.text.enable_caches
                0x0000000087832778        0x0 arch/arm/cpu/armv7/start.o
 .rel.rodata    0x0000000087832778      0x118 arch/arm/cpu/armv7/start.o
 .rel.text.board_eth_init
                0x0000000087832890       0x28 arch/arm/cpu/armv7/start.o
 .rel.text.power_init_board
                0x00000000878328b8       0x70 arch/arm/cpu/armv7/start.o
 .rel.text.ldo_mode_set
                0x0000000087832928       0x20 arch/arm/cpu/armv7/start.o
 .rel.text.board_early_init_f
                0x0000000087832948        0x8 arch/arm/cpu/armv7/start.o
 .rel.text.board_mmc_init
                0x0000000087832950       0x20 arch/arm/cpu/armv7/start.o
 .rel.text.check_mmc_autodetect
                0x0000000087832970       0x10 arch/arm/cpu/armv7/start.o
 .rel.text.board_late_mmc_init
                0x0000000087832980       0x20 arch/arm/cpu/armv7/start.o
 .rel.text.board_qspi_init
                0x00000000878329a0        0x8 arch/arm/cpu/armv7/start.o
 .rel.text.board_init
                0x00000000878329a8       0x30 arch/arm/cpu/armv7/start.o
 .rel.text.checkboard
                0x00000000878329d8       0x20 arch/arm/cpu/armv7/start.o
 .rel.text.do_udooinit
                0x00000000878329f8       0xe0 arch/arm/cpu/armv7/start.o
 .rel.text.detect_board
                0x0000000087832ad8        0x8 arch/arm/cpu/armv7/start.o
 .rel.u_boot_list_2_cmd_2_udooinit
                0x0000000087832ae0       0x20 arch/arm/cpu/armv7/start.o
 .rel.text.jumptable_init
                0x0000000087832b00       0xb8 arch/arm/cpu/armv7/start.o
 .rel.text.hash_lookup_algo
                0x0000000087832bb8        0x0 arch/arm/cpu/armv7/start.o
 .rel.text.hash_progressive_lookup_algo
                0x0000000087832bb8        0x0 arch/arm/cpu/armv7/start.o
 .rel.text.hash_show
                0x0000000087832bb8        0x0 arch/arm/cpu/armv7/start.o
 .rel.text.hash_command
                0x0000000087832bb8        0x8 arch/arm/cpu/armv7/start.o
 .rel.text.mapset
                0x0000000087832bc0        0x8 arch/arm/cpu/armv7/start.o
 .rel.text.syntax_err
                0x0000000087832bc8        0x8 arch/arm/cpu/armv7/start.o
 .rel.text.xmalloc
                0x0000000087832bd0        0x8 arch/arm/cpu/armv7/start.o
 .rel.text.xrealloc
                0x0000000087832bd8        0x8 arch/arm/cpu/armv7/start.o
 .rel.text.done_word
                0x0000000087832be0        0x8 arch/arm/cpu/armv7/start.o
 .rel.text.do_showvar
                0x0000000087832be8       0x20 arch/arm/cpu/armv7/start.o
 .rel.text.is_assignment
                0x0000000087832c08        0x8 arch/arm/cpu/armv7/start.o
 .rel.text.file_get
                0x0000000087832c10       0x30 arch/arm/cpu/armv7/start.o
 .rel.text.b_addqchr
                0x0000000087832c40        0x8 arch/arm/cpu/armv7/start.o
 .rel.text.get_local_var
                0x0000000087832c48       0x20 arch/arm/cpu/armv7/start.o
 .rel.text.set_local_var
                0x0000000087832c68       0x20 arch/arm/cpu/armv7/start.o
 .rel.text.insert_var_value_sub
                0x0000000087832c88        0x8 arch/arm/cpu/armv7/start.o
 .rel.text.unset_local_var
                0x0000000087832c90        0x0 arch/arm/cpu/armv7/start.o
 .rel.text.parse_string_outer
                0x0000000087832c90       0x18 arch/arm/cpu/armv7/start.o
 .rel.text.run_list_real
                0x0000000087832ca8       0x48 arch/arm/cpu/armv7/start.o
 .rel.text.parse_stream_outer
                0x0000000087832cf0       0x68 arch/arm/cpu/armv7/start.o
 .rel.text.parse_file_outer
                0x0000000087832d58       0x10 arch/arm/cpu/armv7/start.o
 .rel.text.u_boot_hush_start
                0x0000000087832d68       0x18 arch/arm/cpu/armv7/start.o
 .rel.text.bootdelay_process
                0x0000000087832d80       0x40 arch/arm/cpu/armv7/start.o
 .rel.text.autoboot_command
                0x0000000087832dc0       0x18 arch/arm/cpu/armv7/start.o
 .rel.text.setup_mon_len
                0x0000000087832dd8       0x10 arch/arm/cpu/armv7/start.o
 .rel.text.announce_dram_init
                0x0000000087832de8        0x8 arch/arm/cpu/armv7/start.o
 .rel.text.init_func_i2c
                0x0000000087832df0       0x10 arch/arm/cpu/armv7/start.o
 .rel.text.init_baud_rate
                0x0000000087832e00        0x8 arch/arm/cpu/armv7/start.o
 .rel.text.show_dram_config
                0x0000000087832e08        0x8 arch/arm/cpu/armv7/start.o
 .rel.text.board_init_f
                0x0000000087832e10        0x8 arch/arm/cpu/armv7/start.o
 .rel.text.initr_reloc_global_data
                0x0000000087832e18       0x18 arch/arm/cpu/armv7/start.o
 .rel.text.initr_net
                0x0000000087832e30        0x8 arch/arm/cpu/armv7/start.o
 .rel.text.initr_ethaddr
                0x0000000087832e38        0x8 arch/arm/cpu/armv7/start.o
 .rel.text.initr_env
                0x0000000087832e40       0x10 arch/arm/cpu/armv7/start.o
 .rel.text.initr_mmc
                0x0000000087832e50        0x8 arch/arm/cpu/armv7/start.o
 .rel.text.board_init_r
                0x0000000087832e58        0x8 arch/arm/cpu/armv7/start.o
 .rel.text.do_go
                0x0000000087832e60       0x10 arch/arm/cpu/armv7/start.o
 .rel.text.do_bootm
                0x0000000087832e70       0x18 arch/arm/cpu/armv7/start.o
 .rel.text.do_bootd
                0x0000000087832e88        0x8 arch/arm/cpu/armv7/start.o
 .rel.text.image_info
                0x0000000087832e90       0x40 arch/arm/cpu/armv7/start.o
 .rel.text.do_iminfo
                0x0000000087832ed0        0x8 arch/arm/cpu/armv7/start.o
 .rel.text.bootm_maybe_autostart
                0x0000000087832ed8       0x20 arch/arm/cpu/armv7/start.o
 .rel.text.do_bootz
                0x0000000087832ef8       0x18 arch/arm/cpu/armv7/start.o
 .rel.text.bootm_find_ramdisk_fdt
                0x0000000087832f10       0x18 arch/arm/cpu/armv7/start.o
 .rel.text.bootm_decomp_image
                0x0000000087832f28       0x48 arch/arm/cpu/armv7/start.o
 .rel.text.do_bootm_states
                0x0000000087832f70       0xc0 arch/arm/cpu/armv7/start.o
 .rel.text.do_bootm_standalone
                0x0000000087833030       0x18 arch/arm/cpu/armv7/start.o
 .rel.text.do_bootvx_fdt
                0x0000000087833048       0x38 arch/arm/cpu/armv7/start.o
 .rel.text.bootm_os_get_boot_func
                0x0000000087833080        0x8 arch/arm/cpu/armv7/start.o
 .rel.text.do_help
                0x0000000087833088       0x10 arch/arm/cpu/armv7/start.o
 .rel.text.do_version
                0x0000000087833098       0x20 arch/arm/cpu/armv7/start.o
 .rel.text.env_attr_lookup
                0x00000000878330b8        0x8 arch/arm/cpu/armv7/start.o
 .rel.text.find_env_callback
                0x00000000878330c0       0x10 arch/arm/cpu/armv7/start.o
 .rel.text.on_callbacks
                0x00000000878330d0       0x20 arch/arm/cpu/armv7/start.o
 .rel.text.set_callback
                0x00000000878330f0        0x8 arch/arm/cpu/armv7/start.o
 .rel.text.env_callback_init
                0x00000000878330f8       0x20 arch/arm/cpu/armv7/start.o
 .rel.text.skip_num
                0x0000000087833118        0x8 arch/arm/cpu/armv7/start.o
 .rel.text.on_flags
                0x0000000087833120       0x20 arch/arm/cpu/armv7/start.o
 .rel.text.env_flags_parse_vartype
                0x0000000087833140       0x10 arch/arm/cpu/armv7/start.o
 .rel.text.env_flags_parse_varaccess
                0x0000000087833150       0x10 arch/arm/cpu/armv7/start.o
 .rel.text.set_flags
                0x0000000087833160       0x10 arch/arm/cpu/armv7/start.o
 .rel.text.env_flags_init
                0x0000000087833170       0x30 arch/arm/cpu/armv7/start.o
 .rel.text.env_flags_validate
                0x00000000878331a0       0x38 arch/arm/cpu/armv7/start.o
 .rel.text.env_init
                0x00000000878331d8        0x8 arch/arm/cpu/armv7/start.o
 .rel.text.init_mmc_for_env
                0x00000000878331e0       0x18 arch/arm/cpu/armv7/start.o
 .rel.text.saveenv
                0x00000000878331f8       0x20 arch/arm/cpu/armv7/start.o
 .rel.text.source
                0x0000000087833218       0x38 arch/arm/cpu/armv7/start.o
 .rel.text.do_source
                0x0000000087833250        0x8 arch/arm/cpu/armv7/start.o
 .rel.text.print_num
                0x0000000087833258        0x8 arch/arm/cpu/armv7/start.o
 .rel.text.do_bdinfo
                0x0000000087833260       0x98 arch/arm/cpu/armv7/start.o
 .rel.text.parse_argv
                0x00000000878332f8       0x18 arch/arm/cpu/armv7/start.o
 .rel.text.invalidate_icache_all
                0x0000000087833310        0x0 arch/arm/cpu/armv7/start.o
 .rel.text.do_icache
                0x0000000087833310       0x18 arch/arm/cpu/armv7/start.o
 .rel.text.flush_dcache_all
                0x0000000087833328        0x0 arch/arm/cpu/armv7/start.o
 .rel.text.do_dcache
                0x0000000087833328       0x18 arch/arm/cpu/armv7/start.o
 .rel.text.do_coninfo
                0x0000000087833340       0x28 arch/arm/cpu/armv7/start.o
 .rel.text.do_echo
                0x0000000087833368        0x8 arch/arm/cpu/armv7/start.o
 .rel.text.do_fat_fsinfo
                0x0000000087833370       0x10 arch/arm/cpu/armv7/start.o
 .rel.text.fdt_valid
                0x0000000087833380       0x28 arch/arm/cpu/armv7/start.o
 .rel.text.is_printable_string
                0x00000000878333a8        0x8 arch/arm/cpu/armv7/start.o
 .rel.text.print_data
                0x00000000878333b0       0x58 arch/arm/cpu/armv7/start.o
 .rel.text.set_working_fdt_addr
                0x0000000087833408       0x10 arch/arm/cpu/armv7/start.o
 .rel.text.do_fdt
                0x0000000087833418      0x240 arch/arm/cpu/armv7/start.o
 .rel.text.of_bus_default_count_cells
                0x0000000087833658        0x0 arch/arm/cpu/armv7/start.o
 .rel.text.fdt_find_or_add_subnode
                0x0000000087833658       0x10 arch/arm/cpu/armv7/start.o
 .rel.text.fdt_initrd
                0x0000000087833668       0x30 arch/arm/cpu/armv7/start.o
 .rel.text.fdt_chosen
                0x0000000087833698       0x20 arch/arm/cpu/armv7/start.o
 .rel.text.do_fixup_by_path
                0x00000000878336b8        0x8 arch/arm/cpu/armv7/start.o
 .rel.text.fdt_fixup_memory_banks
                0x00000000878336c0       0x38 arch/arm/cpu/armv7/start.o
 .rel.text.fdt_fixup_ethernet
                0x00000000878336f8       0x38 arch/arm/cpu/armv7/start.o
 .rel.text.fdt_del_node_and_alias
                0x0000000087833730        0x0 arch/arm/cpu/armv7/start.o
 .rel.text.fdt_translate_address
                0x0000000087833730        0x0 arch/arm/cpu/armv7/start.o
 .rel.text.fdt_node_offset_by_compat_reg
                0x0000000087833730        0x0 arch/arm/cpu/armv7/start.o
 .rel.text.fdt_set_phandle
                0x0000000087833730        0x0 arch/arm/cpu/armv7/start.o
 .rel.text.fdt_create_phandle
                0x0000000087833730        0x0 arch/arm/cpu/armv7/start.o
 .rel.text.fdt_set_node_status
                0x0000000087833730        0x0 arch/arm/cpu/armv7/start.o
 .rel.text.fdt_verify_alias_address
                0x0000000087833730        0x0 arch/arm/cpu/armv7/start.o
 .rel.text.fdt_get_base_address
                0x0000000087833730        0x0 arch/arm/cpu/armv7/start.o
 .rel.text.fdt_read_range
                0x0000000087833730        0x0 arch/arm/cpu/armv7/start.o
 .rel.text.fdt_setup_simplefb_node
                0x0000000087833730        0x0 arch/arm/cpu/armv7/start.o
 .rel.text.do_fuse
                0x0000000087833730       0x70 arch/arm/cpu/armv7/start.o
 .rel.text.do_i2c
                0x00000000878337a0        0x8 arch/arm/cpu/armv7/start.o
 .rel.text.do_i2c_probe
                0x00000000878337a8       0x10 arch/arm/cpu/armv7/start.o
 .rel.text.do_i2c_bus_speed
                0x00000000878337b8       0x18 arch/arm/cpu/armv7/start.o
 .rel.text.do_i2c_show_bus
                0x00000000878337d0       0x28 arch/arm/cpu/armv7/start.o
 .rel.text.do_i2c_bus_num
                0x00000000878337f8       0x30 arch/arm/cpu/armv7/start.o
 .rel.text.do_i2c_crc
                0x0000000087833828       0x20 arch/arm/cpu/armv7/start.o
 .rel.text.mod_i2c_mem.isra.4
                0x0000000087833848       0x60 arch/arm/cpu/armv7/start.o
 .rel.text.do_i2c_md
                0x00000000878338a8       0x58 arch/arm/cpu/armv7/start.o
 .rel.text.do_i2c_read
                0x0000000087833900       0x10 arch/arm/cpu/armv7/start.o
 .rel.text.do_i2c_mw
                0x0000000087833910       0x10 arch/arm/cpu/armv7/start.o
 .rel.text.do_i2c_write
                0x0000000087833920       0x18 arch/arm/cpu/armv7/start.o
 .rel.text.do_i2c_loop
                0x0000000087833938       0x10 arch/arm/cpu/armv7/start.o
 .rel.text.binary_test
                0x0000000087833948       0x10 arch/arm/cpu/armv7/start.o
 .rel.text.do_itest
                0x0000000087833958        0x8 arch/arm/cpu/armv7/start.o
 .rel.text.bin_data_init
                0x0000000087833960       0x18 arch/arm/cpu/armv7/start.o
 .rel.text.k_data_save
                0x0000000087833978       0x30 arch/arm/cpu/armv7/start.o
 .rel.text.k_data_restore
                0x00000000878339a8       0x30 arch/arm/cpu/armv7/start.o
 .rel.text.load_serial_ymodem
                0x00000000878339d8       0x20 arch/arm/cpu/armv7/start.o
 .rel.text.bin_data_char
                0x00000000878339f8       0x10 arch/arm/cpu/armv7/start.o
 .rel.text.chk1.constprop.1
                0x0000000087833a08        0x8 arch/arm/cpu/armv7/start.o
 .rel.text.s1_sendpacket.constprop.2
                0x0000000087833a10       0x18 arch/arm/cpu/armv7/start.o
 .rel.text.load_serial
                0x0000000087833a28       0x20 arch/arm/cpu/armv7/start.o
 .rel.text.do_load_serial
                0x0000000087833a48       0x30 arch/arm/cpu/armv7/start.o
 .rel.text.do_load_serial_bin
                0x0000000087833a78      0x110 arch/arm/cpu/armv7/start.o
 .rel.text.do_mem_mw
                0x0000000087833b88        0x8 arch/arm/cpu/armv7/start.o
 .rel.text.do_mem_md
                0x0000000087833b90       0x20 arch/arm/cpu/armv7/start.o
 .rel.text.do_mem_cmp
                0x0000000087833bb0       0x38 arch/arm/cpu/armv7/start.o
 .rel.text.do_mem_base
                0x0000000087833be8       0x10 arch/arm/cpu/armv7/start.o
 .rel.text.do_mem_cp
                0x0000000087833bf8       0x10 arch/arm/cpu/armv7/start.o
 .rel.text.do_mem_crc
                0x0000000087833c08        0x8 arch/arm/cpu/armv7/start.o
 .rel.text.do_mem_mtest
                0x0000000087833c10       0x40 arch/arm/cpu/armv7/start.o
 .rel.text.mod_mem.isra.0
                0x0000000087833c50       0x48 arch/arm/cpu/armv7/start.o
 .rel.text.miiphy_get_dev_by_name
                0x0000000087833c98       0x10 arch/arm/cpu/armv7/start.o
 .rel.text.miiphy_init
                0x0000000087833ca8       0x10 arch/arm/cpu/armv7/start.o
 .rel.text.miiphy_register
                0x0000000087833cb8        0x0 arch/arm/cpu/armv7/start.o
 .rel.text.mdio_register
                0x0000000087833cb8       0x18 arch/arm/cpu/armv7/start.o
 .rel.text.mdio_list_devices
                0x0000000087833cd0       0x28 arch/arm/cpu/armv7/start.o
 .rel.text.miiphy_set_current_dev
                0x0000000087833cf8       0x10 arch/arm/cpu/armv7/start.o
 .rel.text.miiphy_get_active_dev
                0x0000000087833d08        0x8 arch/arm/cpu/armv7/start.o
 .rel.text.mdio_get_current_dev
                0x0000000087833d10        0x8 arch/arm/cpu/armv7/start.o
 .rel.text.mdio_phydev_for_ethname
                0x0000000087833d18       0x10 arch/arm/cpu/armv7/start.o
 .rel.text.miiphy_get_current_dev
                0x0000000087833d28        0x8 arch/arm/cpu/armv7/start.o
 .rel.text.miiphy_listdev
                0x0000000087833d30       0x30 arch/arm/cpu/armv7/start.o
 .rel.text.miiphy_speed
                0x0000000087833d60       0x18 arch/arm/cpu/armv7/start.o
 .rel.text.miiphy_duplex
                0x0000000087833d78       0x18 arch/arm/cpu/armv7/start.o
 .rel.text.do_mii
                0x0000000087833d90      0x168 arch/arm/cpu/armv7/start.o
 .rel.text.do_mdio
                0x0000000087833ef8       0xa8 arch/arm/cpu/armv7/start.o
 .rel.text.do_mmcops
                0x0000000087833fa0       0x18 arch/arm/cpu/armv7/start.o
 .rel.text.init_mmc_device
                0x0000000087833fb8        0x8 arch/arm/cpu/armv7/start.o
 .rel.text.do_mmc_rescan
                0x0000000087833fc0        0x8 arch/arm/cpu/armv7/start.o
 .rel.text.do_mmc_hwpartition
                0x0000000087833fc8       0xc0 arch/arm/cpu/armv7/start.o
 .rel.text.do_mmc_dev
                0x0000000087834088       0x38 arch/arm/cpu/armv7/start.o
 .rel.text.do_mmc_part
                0x00000000878340c0       0x10 arch/arm/cpu/armv7/start.o
 .rel.text.do_mmc_erase
                0x00000000878340d0       0x30 arch/arm/cpu/armv7/start.o
 .rel.text.do_mmc_write
                0x0000000087834100       0x30 arch/arm/cpu/armv7/start.o
 .rel.text.do_mmc_read
                0x0000000087834130       0x28 arch/arm/cpu/armv7/start.o
 .rel.text.do_mmcinfo
                0x0000000087834158       0xf8 arch/arm/cpu/armv7/start.o
 .rel.text.do_mmc_setdsr
                0x0000000087834250       0x28 arch/arm/cpu/armv7/start.o
 .rel.text.cpu_cmd
                0x0000000087834278       0x28 arch/arm/cpu/armv7/start.o
 .rel.text.netboot_common
                0x00000000878342a0       0x98 arch/arm/cpu/armv7/start.o
 .rel.text.do_ping
                0x0000000087834338       0x18 arch/arm/cpu/armv7/start.o
 .rel.text.do_spi_flash
                0x0000000087834350       0xc0 arch/arm/cpu/armv7/start.o
 .rel.text.do_setexpr
                0x0000000087834410        0x8 arch/arm/cpu/armv7/start.o
 .rel.text.do_time
                0x0000000087834418       0x18 arch/arm/cpu/armv7/start.o
 .rel.text.do_test
                0x0000000087834430        0x8 arch/arm/cpu/armv7/start.o
 .rel.text.usb_get_class_desc
                0x0000000087834438       0x50 arch/arm/cpu/armv7/start.o
 .rel.text.usb_display_class_sub
                0x0000000087834488       0x98 arch/arm/cpu/armv7/start.o
 .rel.text.usb_show_tree_graph
                0x0000000087834520       0x48 arch/arm/cpu/armv7/start.o
 .rel.text.usb_display_string
                0x0000000087834568        0x8 arch/arm/cpu/armv7/start.o
 .rel.text.usb_display_config
                0x0000000087834570       0xa8 arch/arm/cpu/armv7/start.o
 .rel.text.do_usbboot
                0x0000000087834618        0x8 arch/arm/cpu/armv7/start.o
 .rel.text.do_usb_start
                0x0000000087834620        0x8 arch/arm/cpu/armv7/start.o
 .rel.text.usb_display_desc.part.2
                0x0000000087834628       0x38 arch/arm/cpu/armv7/start.o
 .rel.text.do_usb
                0x0000000087834660      0x170 arch/arm/cpu/armv7/start.o
 .rel.text.usb_stop
                0x00000000878347d0       0x18 arch/arm/cpu/armv7/start.o
 .rel.text.usb_disable_asynch
                0x00000000878347e8        0x8 arch/arm/cpu/armv7/start.o
 .rel.text.usb_control_msg
                0x00000000878347f0        0x8 arch/arm/cpu/armv7/start.o
 .rel.text.usb_string_sub
                0x00000000878347f8        0x8 arch/arm/cpu/armv7/start.o
 .rel.text.usb_get_configuration_no
                0x0000000087834800       0x20 arch/arm/cpu/armv7/start.o
 .rel.text.usb_set_interface
                0x0000000087834820        0x8 arch/arm/cpu/armv7/start.o
 .rel.text.usb_get_dev_index
                0x0000000087834828        0x8 arch/arm/cpu/armv7/start.o
 .rel.text.usb_alloc_new_device
                0x0000000087834830       0x18 arch/arm/cpu/armv7/start.o
 .rel.text.usb_free_device
                0x0000000087834848       0x10 arch/arm/cpu/armv7/start.o
 .rel.text.usb_new_device
                0x0000000087834858       0x98 arch/arm/cpu/armv7/start.o
 .rel.text.usb_init
                0x00000000878348f0       0x58 arch/arm/cpu/armv7/start.o
 .rel.text.usb_hub_reset
                0x0000000087834948        0x8 arch/arm/cpu/armv7/start.o
 .rel.text.usb_hub_port_connect_change
                0x0000000087834950        0x8 arch/arm/cpu/armv7/start.o
 .rel.text.usb_hub_configure
                0x0000000087834958       0x18 arch/arm/cpu/armv7/start.o
 .rel.text.usb_stor_BBB_transport
                0x0000000087834970       0x10 arch/arm/cpu/armv7/start.o
 .rel.text.usb_stor_CB_comdat
                0x0000000087834980        0x8 arch/arm/cpu/armv7/start.o
 .rel.text.usb_stor_CBI_get_status.isra.4
                0x0000000087834988        0x8 arch/arm/cpu/armv7/start.o
 .rel.text.usb_stor_CB_transport
                0x0000000087834990       0x10 arch/arm/cpu/armv7/start.o
 .rel.text.usb_request_sense.constprop.10
                0x00000000878349a0        0x8 arch/arm/cpu/armv7/start.o
 .rel.text.usb_stor_write
                0x00000000878349a8       0x10 arch/arm/cpu/armv7/start.o
 .rel.text.usb_stor_read
                0x00000000878349b8       0x10 arch/arm/cpu/armv7/start.o
 .rel.text.usb_stor_get_dev
                0x00000000878349c8       0x10 arch/arm/cpu/armv7/start.o
 .rel.text.usb_stor_info
                0x00000000878349d8       0x20 arch/arm/cpu/armv7/start.o
 .rel.text.usb_storage_probe
                0x00000000878349f8       0x38 arch/arm/cpu/armv7/start.o
 .rel.text.usb_stor_get_info
                0x0000000087834a30       0x20 arch/arm/cpu/armv7/start.o
 .rel.text.usb_stor_scan
                0x0000000087834a50       0x40 arch/arm/cpu/armv7/start.o
 .rel.text.do_imgextract
                0x0000000087834a90       0x90 arch/arm/cpu/armv7/start.o
 .rel.text.do_env_delete
                0x0000000087834b20       0x10 arch/arm/cpu/armv7/start.o
 .rel.text.do_env_exists
                0x0000000087834b30        0x8 arch/arm/cpu/armv7/start.o
 .rel.text.do_env_save
                0x0000000087834b38       0x10 arch/arm/cpu/armv7/start.o
 .rel.text.do_env
                0x0000000087834b48        0x8 arch/arm/cpu/armv7/start.o
 .rel.text.env_print
                0x0000000087834b50       0x18 arch/arm/cpu/armv7/start.o
 .rel.text.do_env_print
                0x0000000087834b68       0x10 arch/arm/cpu/armv7/start.o
 .rel.text.do_env_import
                0x0000000087834b78       0x58 arch/arm/cpu/armv7/start.o
 .rel.text.do_env_default
                0x0000000087834bd0        0x8 arch/arm/cpu/armv7/start.o
 .rel.text._do_env_set.isra.0
                0x0000000087834bd8       0x30 arch/arm/cpu/armv7/start.o
 .rel.text.get_env_id
                0x0000000087834c08        0x8 arch/arm/cpu/armv7/start.o
 .rel.text.setenv
                0x0000000087834c10        0x8 arch/arm/cpu/armv7/start.o
 .rel.text.setenv_hex
                0x0000000087834c18        0x8 arch/arm/cpu/armv7/start.o
 .rel.text.do_env_export
                0x0000000087834c20       0x40 arch/arm/cpu/armv7/start.o
 .rel.text.getenv_f
                0x0000000087834c60        0x8 arch/arm/cpu/armv7/start.o
 .rel.text.getenv
                0x0000000087834c68        0x8 arch/arm/cpu/armv7/start.o
 .rel.text.do_env_edit
                0x0000000087834c70       0x10 arch/arm/cpu/armv7/start.o
 .rel.text.env_get_addr
                0x0000000087834c80        0x8 arch/arm/cpu/armv7/start.o
 .rel.text.env_get_char
                0x0000000087834c88        0x8 arch/arm/cpu/armv7/start.o
 .rel.text.set_default_env
                0x0000000087834c90       0x40 arch/arm/cpu/armv7/start.o
 .rel.text.set_default_vars
                0x0000000087834cd0       0x10 arch/arm/cpu/armv7/start.o
 .rel.text.env_import
                0x0000000087834ce0       0x38 arch/arm/cpu/armv7/start.o
 .rel.text.env_export
                0x0000000087834d18       0x28 arch/arm/cpu/armv7/start.o
 .rel.text.env_relocate
                0x0000000087834d40        0x8 arch/arm/cpu/armv7/start.o
 .rel.text.env_complete
                0x0000000087834d48       0x18 arch/arm/cpu/armv7/start.o
 .rel.text.console_setfile
                0x0000000087834d60       0x30 arch/arm/cpu/armv7/start.o
 .rel.text.putc
                0x0000000087834d90        0x8 arch/arm/cpu/armv7/start.o
 .rel.text.puts
                0x0000000087834d98        0x8 arch/arm/cpu/armv7/start.o
 .rel.text.fgetc
                0x0000000087834da0        0x8 arch/arm/cpu/armv7/start.o
 .rel.text.ftstc
                0x0000000087834da8        0x8 arch/arm/cpu/armv7/start.o
 .rel.text.fputc
                0x0000000087834db0        0x0 arch/arm/cpu/armv7/start.o
 .rel.text.fputs
                0x0000000087834db0        0x0 arch/arm/cpu/armv7/start.o
 .rel.text.ctrlc
                0x0000000087834db0       0x10 arch/arm/cpu/armv7/start.o
 .rel.text.confirm_yesno
                0x0000000087834dc0       0x20 arch/arm/cpu/armv7/start.o
 .rel.text.disable_ctrlc
                0x0000000087834de0        0x0 arch/arm/cpu/armv7/start.o
 .rel.text.had_ctrlc
                0x0000000087834de0        0x8 arch/arm/cpu/armv7/start.o
 .rel.text.clear_ctrlc
                0x0000000087834de8        0x8 arch/arm/cpu/armv7/start.o
 .rel.text.on_console
                0x0000000087834df0       0x20 arch/arm/cpu/armv7/start.o
 .rel.text.stdio_print_current_devices
                0x0000000087834e10       0x40 arch/arm/cpu/armv7/start.o
 .rel.text.console_init_r
                0x0000000087834e50       0x10 arch/arm/cpu/armv7/start.o
 .rel.text.sbrk
                0x0000000087834e60       0x18 arch/arm/cpu/armv7/start.o
 .rel.text.mem_malloc_init
                0x0000000087834e78       0x18 arch/arm/cpu/armv7/start.o
 .rel.text.malloc_trim
                0x0000000087834e90       0x18 arch/arm/cpu/armv7/start.o
 .rel.text.free
                0x0000000087834ea8       0x20 arch/arm/cpu/armv7/start.o
 .rel.text.malloc
                0x0000000087834ec8       0x48 arch/arm/cpu/armv7/start.o
 .rel.text.calloc
                0x0000000087834f10        0x8 arch/arm/cpu/armv7/start.o
 .rel.text.realloc
                0x0000000087834f18       0x10 arch/arm/cpu/armv7/start.o
 .rel.text.mallopt
                0x0000000087834f28        0x0 arch/arm/cpu/armv7/start.o
 .rel.text.on_loadaddr
                0x0000000087834f28        0x8 arch/arm/cpu/armv7/start.o
 .rel.text.getenv_bootm_low
                0x0000000087834f30        0x8 arch/arm/cpu/armv7/start.o
 .rel.text.getenv_bootm_size
                0x0000000087834f38       0x10 arch/arm/cpu/armv7/start.o
 .rel.text.getenv_bootm_mapsize
                0x0000000087834f48        0x8 arch/arm/cpu/armv7/start.o
 .rel.text.genimg_print_size
                0x0000000087834f50       0x10 arch/arm/cpu/armv7/start.o
 .rel.text.genimg_get_os_name
                0x0000000087834f60       0x10 arch/arm/cpu/armv7/start.o
 .rel.text.genimg_get_arch_name
                0x0000000087834f70       0x10 arch/arm/cpu/armv7/start.o
 .rel.text.genimg_get_type_name
                0x0000000087834f80       0x10 arch/arm/cpu/armv7/start.o
 .rel.text.genimg_get_comp_name
                0x0000000087834f90       0x10 arch/arm/cpu/armv7/start.o
 .rel.text.image_print_contents
                0x0000000087834fa0       0x50 arch/arm/cpu/armv7/start.o
 .rel.text.genimg_get_os_id
                0x0000000087834ff0        0x0 arch/arm/cpu/armv7/start.o
 .rel.text.genimg_get_arch_id
                0x0000000087834ff0        0x0 arch/arm/cpu/armv7/start.o
 .rel.text.genimg_get_type_id
                0x0000000087834ff0        0x0 arch/arm/cpu/armv7/start.o
 .rel.text.genimg_get_comp_id
                0x0000000087834ff0        0x0 arch/arm/cpu/armv7/start.o
 .rel.text.genimg_get_kernel_addr_fit
                0x0000000087834ff0        0x8 arch/arm/cpu/armv7/start.o
 .rel.text.boot_get_ramdisk
                0x0000000087834ff8       0x50 arch/arm/cpu/armv7/start.o
 .rel.text.boot_ramdisk_high
                0x0000000087835048       0x20 arch/arm/cpu/armv7/start.o
 .rel.text.fdt_error
                0x0000000087835068       0x10 arch/arm/cpu/armv7/start.o
 .rel.text.boot_fdt_add_mem_rsv_regions
                0x0000000087835078        0x8 arch/arm/cpu/armv7/start.o
 .rel.text.boot_relocate_fdt
                0x0000000087835080       0x40 arch/arm/cpu/armv7/start.o
 .rel.text.boot_get_fdt
                0x00000000878350c0       0x80 arch/arm/cpu/armv7/start.o
 .rel.text.image_setup_libfdt
                0x0000000087835140       0x18 arch/arm/cpu/armv7/start.o
 .rel.text.stdio_get_list
                0x0000000087835158        0x8 arch/arm/cpu/armv7/start.o
 .rel.text.stdio_get_by_name
                0x0000000087835160        0x8 arch/arm/cpu/armv7/start.o
 .rel.text.stdio_register_dev
                0x0000000087835168        0x8 arch/arm/cpu/armv7/start.o
 .rel.text.stdio_init_tables
                0x0000000087835170        0x8 arch/arm/cpu/armv7/start.o
 .rel.text.stdio_add_devices
                0x0000000087835178       0x28 arch/arm/cpu/armv7/start.o
 .rel.text.cli_simple_parse_line
                0x00000000878351a0        0x0 arch/arm/cpu/armv7/start.o
 .rel.text.cli_simple_run_command
                0x00000000878351a0        0x0 arch/arm/cpu/armv7/start.o
 .rel.text.cli_simple_loop
                0x00000000878351a0        0x0 arch/arm/cpu/armv7/start.o
 .rel.text.do_run
                0x00000000878351a0        0x8 arch/arm/cpu/armv7/start.o
 .rel.text.delete_char.part.0
                0x00000000878351a8       0x10 arch/arm/cpu/armv7/start.o
 .rel.text.cread_add_char
                0x00000000878351b8        0x8 arch/arm/cpu/armv7/start.o
 .rel.text.cli_readline_into_buffer
                0x00000000878351c0       0xb0 arch/arm/cpu/armv7/start.o
 .rel.text.cli_readline
                0x0000000087835270        0x8 arch/arm/cpu/armv7/start.o
 .rel.text.find_cmd
                0x0000000087835278       0x10 arch/arm/cpu/armv7/start.o
 .rel.text.cmd_usage
                0x0000000087835288       0x18 arch/arm/cpu/armv7/start.o
 .rel.text._do_help
                0x00000000878352a0       0x10 arch/arm/cpu/armv7/start.o
 .rel.text.var_complete
                0x00000000878352b0       0x10 arch/arm/cpu/armv7/start.o
 .rel.text.cmd_auto_complete
                0x00000000878352c0       0x48 arch/arm/cpu/armv7/start.o
 .rel.text.cmd_get_data_size
                0x0000000087835308        0x8 arch/arm/cpu/armv7/start.o
 .rel.text.cmd_process
                0x0000000087835310       0x18 arch/arm/cpu/armv7/start.o
 .rel.text.cmd_process_error
                0x0000000087835328        0x8 arch/arm/cpu/armv7/start.o
 .rel.text.xyzModem_get_hdr
                0x0000000087835330       0x30 arch/arm/cpu/armv7/start.o
 .rel.text.xyzModem_stream_open
                0x0000000087835360       0x10 arch/arm/cpu/armv7/start.o
 .rel.text.xyzModem_stream_read
                0x0000000087835370        0x8 arch/arm/cpu/armv7/start.o
 .rel.text.xyzModem_stream_close
                0x0000000087835378       0x20 arch/arm/cpu/armv7/start.o
 .rel.text.xyzModem_stream_terminate
                0x0000000087835398        0x8 arch/arm/cpu/armv7/start.o
 .rel.text.xyzModem_error
                0x00000000878353a0       0x10 arch/arm/cpu/armv7/start.o
 .rel.text.common_diskboot
                0x00000000878353b0       0x28 arch/arm/cpu/armv7/start.o
 .rel.rodata.boot_os
                0x00000000878353d8       0x18 arch/arm/cpu/armv7/start.o
 .rel.rodata.op_table
                0x00000000878353f0       0x68 arch/arm/cpu/armv7/start.o
 .rel.rodata.reg_4_desc_tbl
                0x0000000087835458       0x60 arch/arm/cpu/armv7/start.o
 .rel.rodata.desc_and_len_tbl
                0x00000000878354b8       0x30 arch/arm/cpu/armv7/start.o
 .rel.rodata.reg_5_desc_tbl
                0x00000000878354e8       0x60 arch/arm/cpu/armv7/start.o
 .rel.rodata.reg_2_desc_tbl
                0x0000000087835548        0x8 arch/arm/cpu/armv7/start.o
 .rel.rodata.reg_0_5_desc_tbl
                0x0000000087835550       0x30 arch/arm/cpu/armv7/start.o
 .rel.rodata.reg_3_desc_tbl
                0x0000000087835580       0x18 arch/arm/cpu/armv7/start.o
 .rel.rodata.reg_0_desc_tbl
                0x0000000087835598       0x50 arch/arm/cpu/armv7/start.o
 .rel.rodata.reg_1_desc_tbl
                0x00000000878355e8       0x80 arch/arm/cpu/armv7/start.o
 .rel.rodata.op_adv
                0x0000000087835668       0x80 arch/arm/cpu/armv7/start.o
 .rel.rodata.CSWTCH.27
                0x00000000878356e8       0x28 arch/arm/cpu/armv7/start.o
 .rel.rodata.uimage_comp
                0x0000000087835710       0x60 arch/arm/cpu/armv7/start.o
 .rel.rodata.uimage_os
                0x0000000087835770       0x88 arch/arm/cpu/armv7/start.o
 .rel.rodata.uimage_arch
                0x00000000878357f8      0x188 arch/arm/cpu/armv7/start.o
 .rel.rodata.uimage_type
                0x0000000087835980      0x168 arch/arm/cpu/armv7/start.o
 .rel.rodata.CSWTCH.28
                0x0000000087835ae8       0x40 arch/arm/cpu/armv7/start.o
 .rel.data.hash_algo
                0x0000000087835b28        0x0 arch/arm/cpu/armv7/start.o
 .rel.data.reserved_list
                0x0000000087835b28       0x58 arch/arm/cpu/armv7/start.o
 .rel.u_boot_list_2_cmd_2_showvar
                0x0000000087835b80       0x20 arch/arm/cpu/armv7/start.o
 .rel.data.init_sequence_f
                0x0000000087835ba0      0x130 arch/arm/cpu/armv7/start.o
 .rel.data.init_sequence_r
                0x0000000087835cd0       0xc8 arch/arm/cpu/armv7/start.o
 .rel.u_boot_list_2_cmd_2_go
                0x0000000087835d98       0x20 arch/arm/cpu/armv7/start.o
 .rel.u_boot_list_2_cmd_2_reset
                0x0000000087835db8       0x20 arch/arm/cpu/armv7/start.o
 .rel.u_boot_list_2_cmd_2_iminfo
                0x0000000087835dd8       0x20 arch/arm/cpu/armv7/start.o
 .rel.u_boot_list_2_cmd_2_bootz
                0x0000000087835df8       0x20 arch/arm/cpu/armv7/start.o
 .rel.u_boot_list_2_cmd_2_boot
                0x0000000087835e18       0x20 arch/arm/cpu/armv7/start.o
 .rel.u_boot_list_2_cmd_2_bootd
                0x0000000087835e38       0x20 arch/arm/cpu/armv7/start.o
 .rel.u_boot_list_2_cmd_2_bootm
                0x0000000087835e58       0x20 arch/arm/cpu/armv7/start.o
 .rel.data.cmd_bootm_sub
                0x0000000087835e78       0xd8 arch/arm/cpu/armv7/start.o
 .rel.u_boot_list_2_cmd_2_question_mark
                0x0000000087835f50       0x20 arch/arm/cpu/armv7/start.o
 .rel.u_boot_list_2_cmd_2_help
                0x0000000087835f70       0x20 arch/arm/cpu/armv7/start.o
 .rel.u_boot_list_2_cmd_2_version
                0x0000000087835f90       0x20 arch/arm/cpu/armv7/start.o
 .rel.u_boot_list_2_env_clbk_2_callbacks
                0x0000000087835fb0       0x10 arch/arm/cpu/armv7/start.o
 .rel.u_boot_list_2_env_clbk_2_flags
                0x0000000087835fc0       0x10 arch/arm/cpu/armv7/start.o
 .rel.data.env_name_spec
                0x0000000087835fd0        0x8 arch/arm/cpu/armv7/start.o
 .rel.u_boot_list_2_cmd_2_source
                0x0000000087835fd8       0x20 arch/arm/cpu/armv7/start.o
 .rel.u_boot_list_2_cmd_2_bdinfo
                0x0000000087835ff8       0x20 arch/arm/cpu/armv7/start.o
 .rel.u_boot_list_2_cmd_2_icache
                0x0000000087836018       0x20 arch/arm/cpu/armv7/start.o
 .rel.u_boot_list_2_cmd_2_dcache
                0x0000000087836038       0x20 arch/arm/cpu/armv7/start.o
 .rel.u_boot_list_2_cmd_2_coninfo
                0x0000000087836058       0x20 arch/arm/cpu/armv7/start.o
 .rel.u_boot_list_2_cmd_2_echo
                0x0000000087836078       0x20 arch/arm/cpu/armv7/start.o
 .rel.u_boot_list_2_cmd_2_exit
                0x0000000087836098       0x20 arch/arm/cpu/armv7/start.o
 .rel.u_boot_list_2_cmd_2_ext2ls
                0x00000000878360b8       0x20 arch/arm/cpu/armv7/start.o
 .rel.u_boot_list_2_cmd_2_ext2load
                0x00000000878360d8       0x20 arch/arm/cpu/armv7/start.o
 .rel.u_boot_list_2_cmd_2_fatinfo
                0x00000000878360f8       0x20 arch/arm/cpu/armv7/start.o
 .rel.u_boot_list_2_cmd_2_fatsize
                0x0000000087836118       0x20 arch/arm/cpu/armv7/start.o
 .rel.u_boot_list_2_cmd_2_fatload
                0x0000000087836138       0x20 arch/arm/cpu/armv7/start.o
 .rel.u_boot_list_2_cmd_2_fatls
                0x0000000087836158       0x20 arch/arm/cpu/armv7/start.o
 .rel.u_boot_list_2_cmd_2_fdt
                0x0000000087836178       0x20 arch/arm/cpu/armv7/start.o
 .rel.data.of_busses
                0x0000000087836198        0x0 arch/arm/cpu/armv7/start.o
 .rel.u_boot_list_2_cmd_2_protect
                0x0000000087836198       0x20 arch/arm/cpu/armv7/start.o
 .rel.u_boot_list_2_cmd_2_erase
                0x00000000878361b8       0x20 arch/arm/cpu/armv7/start.o
 .rel.u_boot_list_2_cmd_2_flinfo
                0x00000000878361d8       0x20 arch/arm/cpu/armv7/start.o
 .rel.u_boot_list_2_cmd_2_fuse
                0x00000000878361f8       0x20 arch/arm/cpu/armv7/start.o
 .rel.data.cmd_i2c_sub
                0x0000000087836218      0x1a0 arch/arm/cpu/armv7/start.o
 .rel.u_boot_list_2_cmd_2_i2c
                0x00000000878363b8       0x20 arch/arm/cpu/armv7/start.o
 .rel.u_boot_list_2_cmd_2_itest
                0x00000000878363d8       0x20 arch/arm/cpu/armv7/start.o
 .rel.u_boot_list_2_cmd_2_loadb
                0x00000000878363f8       0x20 arch/arm/cpu/armv7/start.o
 .rel.u_boot_list_2_cmd_2_loads
                0x0000000087836418       0x20 arch/arm/cpu/armv7/start.o
 .rel.u_boot_list_2_cmd_2_loadx
                0x0000000087836438       0x20 arch/arm/cpu/armv7/start.o
 .rel.u_boot_list_2_cmd_2_loady
                0x0000000087836458       0x20 arch/arm/cpu/armv7/start.o
 .rel.u_boot_list_2_cmd_2_base
                0x0000000087836478       0x20 arch/arm/cpu/armv7/start.o
 .rel.u_boot_list_2_cmd_2_cmp
                0x0000000087836498       0x20 arch/arm/cpu/armv7/start.o
 .rel.u_boot_list_2_cmd_2_nm
                0x00000000878364b8       0x20 arch/arm/cpu/armv7/start.o
 .rel.u_boot_list_2_cmd_2_loop
                0x00000000878364d8       0x20 arch/arm/cpu/armv7/start.o
 .rel.u_boot_list_2_cmd_2_mtest
                0x00000000878364f8       0x20 arch/arm/cpu/armv7/start.o
 .rel.u_boot_list_2_cmd_2_cp
                0x0000000087836518       0x20 arch/arm/cpu/armv7/start.o
 .rel.u_boot_list_2_cmd_2_mm
                0x0000000087836538       0x20 arch/arm/cpu/armv7/start.o
 .rel.u_boot_list_2_cmd_2_crc32
                0x0000000087836558       0x20 arch/arm/cpu/armv7/start.o
 .rel.u_boot_list_2_cmd_2_md
                0x0000000087836578       0x20 arch/arm/cpu/armv7/start.o
 .rel.u_boot_list_2_cmd_2_mw
                0x0000000087836598       0x20 arch/arm/cpu/armv7/start.o
 .rel.u_boot_list_2_cmd_2_mii
                0x00000000878365b8       0x20 arch/arm/cpu/armv7/start.o
 .rel.u_boot_list_2_cmd_2_mdio
                0x00000000878365d8       0x20 arch/arm/cpu/armv7/start.o
 .rel.u_boot_list_2_cmd_2_sleep
                0x00000000878365f8       0x20 arch/arm/cpu/armv7/start.o
 .rel.u_boot_list_2_cmd_2_mmcinfo
                0x0000000087836618       0x20 arch/arm/cpu/armv7/start.o
 .rel.data.cmd_mmc
                0x0000000087836638      0x140 arch/arm/cpu/armv7/start.o
 .rel.u_boot_list_2_cmd_2_mmc
                0x0000000087836778       0x20 arch/arm/cpu/armv7/start.o
 .rel.u_boot_list_2_cmd_2_cpu
                0x0000000087836798       0x20 arch/arm/cpu/armv7/start.o
 .rel.u_boot_list_2_cmd_2_ping
                0x00000000878367b8       0x20 arch/arm/cpu/armv7/start.o
 .rel.u_boot_list_2_cmd_2_dhcp
                0x00000000878367d8       0x20 arch/arm/cpu/armv7/start.o
 .rel.u_boot_list_2_cmd_2_bootp
                0x00000000878367f8       0x20 arch/arm/cpu/armv7/start.o
 .rel.u_boot_list_2_cmd_2_tftpboot
                0x0000000087836818       0x20 arch/arm/cpu/armv7/start.o
 .rel.u_boot_list_2_cmd_2_nfs
                0x0000000087836838       0x20 arch/arm/cpu/armv7/start.o
 .rel.u_boot_list_2_cmd_2_sf
                0x0000000087836858       0x20 arch/arm/cpu/armv7/start.o
 .rel.u_boot_list_2_cmd_2_setexpr
                0x0000000087836878       0x20 arch/arm/cpu/armv7/start.o
 .rel.u_boot_list_2_cmd_2_time
                0x0000000087836898       0x20 arch/arm/cpu/armv7/start.o
 .rel.u_boot_list_2_cmd_2_test
                0x00000000878368b8       0x20 arch/arm/cpu/armv7/start.o
 .rel.u_boot_list_2_cmd_2_true
                0x00000000878368d8       0x18 arch/arm/cpu/armv7/start.o
 .rel.u_boot_list_2_cmd_2_false
                0x00000000878368f0       0x18 arch/arm/cpu/armv7/start.o
 .rel.u_boot_list_2_cmd_2_usb
                0x0000000087836908       0x20 arch/arm/cpu/armv7/start.o
 .rel.u_boot_list_2_cmd_2_usbboot
                0x0000000087836928       0x20 arch/arm/cpu/armv7/start.o
 .rel.u_boot_list_2_cmd_2_imxtract
                0x0000000087836948       0x20 arch/arm/cpu/armv7/start.o
 .rel.u_boot_list_2_cmd_2_env
                0x0000000087836968       0x20 arch/arm/cpu/armv7/start.o
 .rel.u_boot_list_2_cmd_2_setenv
                0x0000000087836988       0x28 arch/arm/cpu/armv7/start.o
 .rel.u_boot_list_2_cmd_2_saveenv
                0x00000000878369b0       0x20 arch/arm/cpu/armv7/start.o
 .rel.data.cmd_env_sub
                0x00000000878369d0      0x140 arch/arm/cpu/armv7/start.o
 .rel.u_boot_list_2_cmd_2_printenv
                0x0000000087836b10       0x28 arch/arm/cpu/armv7/start.o
 .rel.u_boot_list_2_cmd_2_editenv
                0x0000000087836b38       0x28 arch/arm/cpu/armv7/start.o
 .rel.u_boot_list_2_cmd_2_run
                0x0000000087836b60       0x28 arch/arm/cpu/armv7/start.o
 .rel.data.env_htab
                0x0000000087836b88        0x8 arch/arm/cpu/armv7/start.o
 .rel.u_boot_list_2_env_clbk_2_console
                0x0000000087836b90       0x10 arch/arm/cpu/armv7/start.o
 .rel.data.av_  0x0000000087836ba0      0x800 arch/arm/cpu/armv7/start.o
 .rel.u_boot_list_2_env_clbk_2_loadaddr
                0x00000000878373a0       0x10 arch/arm/cpu/armv7/start.o
 .rel.data.stdio_names
                0x00000000878373b0       0x18 arch/arm/cpu/armv7/start.o
 .rel.text.get_dev_hwpart
                0x00000000878373c8        0x8 arch/arm/cpu/armv7/start.o
 .rel.text.dev_print
                0x00000000878373d0       0x88 arch/arm/cpu/armv7/start.o
 .rel.text.print_part
                0x0000000087837458       0x68 arch/arm/cpu/armv7/start.o
 .rel.text.get_device
                0x00000000878374c0       0x18 arch/arm/cpu/armv7/start.o
 .rel.text.get_device_and_partition
                0x00000000878374d8       0x70 arch/arm/cpu/armv7/start.o
 .rel.text.test_block_type
                0x0000000087837548       0x10 arch/arm/cpu/armv7/start.o
 .rel.text.print_partition_extended
                0x0000000087837558       0x30 arch/arm/cpu/armv7/start.o
 .rel.text.get_partition_info_extended.constprop.1
                0x0000000087837588       0x40 arch/arm/cpu/armv7/start.o
 .rel.text.print_part_dos
                0x00000000878375c8        0x8 arch/arm/cpu/armv7/start.o
 .rel.rodata.block_drvr
                0x00000000878375d0       0x28 arch/arm/cpu/armv7/start.o
 .rel.text.device_bind
                0x00000000878375f8       0x10 arch/arm/cpu/armv7/start.o
 .rel.text.device_probe_child
                0x0000000087837608       0x10 arch/arm/cpu/armv7/start.o
 .rel.text.dev_get_platdata
                0x0000000087837618       0x10 arch/arm/cpu/armv7/start.o
 .rel.text.dev_get_parent_platdata
                0x0000000087837628        0x0 arch/arm/cpu/armv7/start.o
 .rel.text.dev_get_priv
                0x0000000087837628       0x10 arch/arm/cpu/armv7/start.o
 .rel.text.dev_get_parentdata
                0x0000000087837638        0x0 arch/arm/cpu/armv7/start.o
 .rel.text.lists_driver_lookup_name
                0x0000000087837638       0x10 arch/arm/cpu/armv7/start.o
 .rel.text.lists_uclass_lookup
                0x0000000087837648       0x10 arch/arm/cpu/armv7/start.o
 .rel.text.lists_bind_drivers
                0x0000000087837658       0x18 arch/arm/cpu/armv7/start.o
 .rel.text.device_bind_driver
                0x0000000087837670        0x0 arch/arm/cpu/armv7/start.o
 .rel.text.dm_root
                0x0000000087837670        0x8 arch/arm/cpu/armv7/start.o
 .rel.text.dm_init
                0x0000000087837678       0x10 arch/arm/cpu/armv7/start.o
 .rel.text.dm_scan_platdata
                0x0000000087837688        0x8 arch/arm/cpu/armv7/start.o
 .rel.text.uclass_get
                0x0000000087837690        0x8 arch/arm/cpu/armv7/start.o
 .rel.text.uclass_resolve_seq
                0x0000000087837698        0x8 arch/arm/cpu/armv7/start.o
 .rel.text.device_remove
                0x00000000878376a0       0x20 arch/arm/cpu/armv7/start.o
 .rel.text.finish_access
                0x00000000878376c0        0x8 arch/arm/cpu/armv7/start.o
 .rel.text.prepare_access
                0x00000000878376c8        0x8 arch/arm/cpu/armv7/start.o
 .rel.text.fuse_read
                0x00000000878376d0        0x8 arch/arm/cpu/armv7/start.o
 .rel.text.fuse_sense
                0x00000000878376d8        0x8 arch/arm/cpu/armv7/start.o
 .rel.text.fuse_prog
                0x00000000878376e0        0x8 arch/arm/cpu/armv7/start.o
 .rel.text.fuse_override
                0x00000000878376e8        0x8 arch/arm/cpu/armv7/start.o
 .rel.text.input_send_keycodes
                0x00000000878376f0        0x0 arch/arm/cpu/armv7/start.o
 .rel.text.input_init
                0x00000000878376f0        0x0 arch/arm/cpu/armv7/start.o
 .rel.text.input_stdio_register
                0x00000000878376f0        0x0 arch/arm/cpu/armv7/start.o
 .rel.text.imx_thermal_get_temp
                0x00000000878376f0        0x8 arch/arm/cpu/armv7/start.o
 .rel.text.imx_thermal_probe
                0x00000000878376f8        0x8 arch/arm/cpu/armv7/start.o
 .rel.rodata.root_info
                0x0000000087837700        0x8 arch/arm/cpu/armv7/start.o
 .rel.rodata.kbd_to_ansi364
                0x0000000087837708        0x0 arch/arm/cpu/armv7/start.o
 .rel.rodata.imx_thermal_ops
                0x0000000087837708        0x8 arch/arm/cpu/armv7/start.o
 .rel.u_boot_list_2_driver_2_root_driver
                0x0000000087837710        0x8 arch/arm/cpu/armv7/start.o
 .rel.u_boot_list_2_uclass_2_root
                0x0000000087837718        0x8 arch/arm/cpu/armv7/start.o
 .rel.u_boot_list_2_uclass_2_thermal
                0x0000000087837720        0x8 arch/arm/cpu/armv7/start.o
 .rel.u_boot_list_2_driver_2_imx_thermal
                0x0000000087837728       0x18 arch/arm/cpu/armv7/start.o
 .rel.text.gpio_set_value
                0x0000000087837740        0x8 arch/arm/cpu/armv7/start.o
 .rel.text.gpio_get_value
                0x0000000087837748        0x8 arch/arm/cpu/armv7/start.o
 .rel.text.gpio_direction_input
                0x0000000087837750        0x8 arch/arm/cpu/armv7/start.o
 .rel.text.gpio_direction_output
                0x0000000087837758        0x8 arch/arm/cpu/armv7/start.o
 .rel.text.i2c_get_adapter
                0x0000000087837760       0x18 arch/arm/cpu/armv7/start.o
 .rel.text.i2c_init_bus
                0x0000000087837778       0x10 arch/arm/cpu/armv7/start.o
 .rel.text.i2c_set_bus_num
                0x0000000087837788       0x18 arch/arm/cpu/armv7/start.o
 .rel.text.wait_for_sr_state
                0x00000000878377a0       0x18 arch/arm/cpu/armv7/start.o
 .rel.text.i2c_imx_get_clk
                0x00000000878377b8        0x8 arch/arm/cpu/armv7/start.o
 .rel.text.i2c_imx_stop
                0x00000000878377c0       0x10 arch/arm/cpu/armv7/start.o
 .rel.text.mxc_i2c_set_bus_speed
                0x00000000878377d0       0x10 arch/arm/cpu/armv7/start.o
 .rel.text.i2c_init_transfer
                0x00000000878377e0       0x20 arch/arm/cpu/armv7/start.o
 .rel.text.mxc_i2c_read
                0x0000000087837800        0x8 arch/arm/cpu/armv7/start.o
 .rel.text.mxc_i2c_write
                0x0000000087837808        0x8 arch/arm/cpu/armv7/start.o
 .rel.text.mxc_i2c_probe
                0x0000000087837810        0x8 arch/arm/cpu/armv7/start.o
 .rel.text.i2c_get_base
                0x0000000087837818        0x0 arch/arm/cpu/armv7/start.o
 .rel.text.bus_i2c_init
                0x0000000087837818        0x8 arch/arm/cpu/armv7/start.o
 .rel.text.mxc_i2c_init
                0x0000000087837820        0x8 arch/arm/cpu/armv7/start.o
 .rel.u_boot_list_2_i2c_2_mxc0
                0x0000000087837828       0x30 arch/arm/cpu/armv7/start.o
 .rel.u_boot_list_2_i2c_2_mxc1
                0x0000000087837858       0x30 arch/arm/cpu/armv7/start.o
 .rel.u_boot_list_2_i2c_2_mxc2
                0x0000000087837888       0x30 arch/arm/cpu/armv7/start.o
 .rel.u_boot_list_2_i2c_2_mxc3
                0x00000000878378b8       0x30 arch/arm/cpu/armv7/start.o
 .rel.text.esdhc_send_cmd
                0x00000000878378e8       0x20 arch/arm/cpu/armv7/start.o
 .rel.text.fsl_esdhc_initialize
                0x0000000087837908       0x20 arch/arm/cpu/armv7/start.o
 .rel.text.fdt_fixup_esdhc
                0x0000000087837928        0x0 arch/arm/cpu/armv7/start.o
 .rel.text.mmc_send_status
                0x0000000087837928       0x10 arch/arm/cpu/armv7/start.o
 .rel.text.find_mmc_device
                0x0000000087837938       0x10 arch/arm/cpu/armv7/start.o
 .rel.text.mmc_bread
                0x0000000087837948       0x10 arch/arm/cpu/armv7/start.o
 .rel.text.mmc_select_hwpart
                0x0000000087837958        0x8 arch/arm/cpu/armv7/start.o
 .rel.text.mmc_hwpart_config
                0x0000000087837960       0x48 arch/arm/cpu/armv7/start.o
 .rel.text.mmc_startup
                0x00000000878379a8       0x48 arch/arm/cpu/armv7/start.o
 .rel.text.mmc_register
                0x00000000878379f0        0x0 arch/arm/cpu/armv7/start.o
 .rel.text.mmc_create
                0x00000000878379f0       0x28 arch/arm/cpu/armv7/start.o
 .rel.text.mmc_start_init
                0x0000000087837a18       0x10 arch/arm/cpu/armv7/start.o
 .rel.text.print_mmc_devices
                0x0000000087837a28       0x40 arch/arm/cpu/armv7/start.o
 .rel.text.get_mmc_num
                0x0000000087837a68        0x8 arch/arm/cpu/armv7/start.o
 .rel.text.mmc_initialize
                0x0000000087837a70       0x10 arch/arm/cpu/armv7/start.o
 .rel.text.mmc_berase
                0x0000000087837a80       0x10 arch/arm/cpu/armv7/start.o
 .rel.text.mmc_bwrite
                0x0000000087837a90       0x18 arch/arm/cpu/armv7/start.o
 .rel.rodata.esdhc_ops
                0x0000000087837aa8       0x20 arch/arm/cpu/armv7/start.o
 .rel.text.spi_flash_probe_slave
                0x0000000087837ac8       0x80 arch/arm/cpu/armv7/start.o
 .rel.rodata.spi_flash_params_table
                0x0000000087837b48      0x148 arch/arm/cpu/armv7/start.o
 .rel.text.fec_phy_write
                0x0000000087837c90        0x8 arch/arm/cpu/armv7/start.o
 .rel.text.fec_phy_read
                0x0000000087837c98        0x8 arch/arm/cpu/armv7/start.o
 .rel.text.fec_send
                0x0000000087837ca0        0x8 arch/arm/cpu/armv7/start.o
 .rel.text.fec_init
                0x0000000087837ca8        0x8 arch/arm/cpu/armv7/start.o
 .rel.text.fec_recv
                0x0000000087837cb0       0x10 arch/arm/cpu/armv7/start.o
 .rel.text.fec_probe
                0x0000000087837cc0       0x68 arch/arm/cpu/armv7/start.o
 .rel.text.fec_get_miibus
                0x0000000087837d28       0x30 arch/arm/cpu/armv7/start.o
 .rel.text.phy_device_create
                0x0000000087837d58       0x18 arch/arm/cpu/armv7/start.o
 .rel.text.get_phy_device_by_mask
                0x0000000087837d70        0x8 arch/arm/cpu/armv7/start.o
 .rel.text.genphy_update_link
                0x0000000087837d78       0x28 arch/arm/cpu/armv7/start.o
 .rel.text.phy_register
                0x0000000087837da0        0x8 arch/arm/cpu/armv7/start.o
 .rel.text.phy_reset
                0x0000000087837da8        0x8 arch/arm/cpu/armv7/start.o
 .rel.text.phy_connect_dev
                0x0000000087837db0        0x8 arch/arm/cpu/armv7/start.o
 .rel.text.phy_connect
                0x0000000087837db8        0x0 arch/arm/cpu/armv7/start.o
 .rel.text.phy_micrel_init
                0x0000000087837db8       0x28 arch/arm/cpu/armv7/start.o
 .rel.data.phy_drivers
                0x0000000087837de0       0x10 arch/arm/cpu/armv7/start.o
 .rel.data.genphy_driver
                0x0000000087837df0       0x20 arch/arm/cpu/armv7/start.o
 .rel.data.ksz8895_driver
                0x0000000087837e10       0x20 arch/arm/cpu/armv7/start.o
 .rel.data.KSZ8081_driver
                0x0000000087837e30       0x20 arch/arm/cpu/armv7/start.o
 .rel.data.KSZ804_driver
                0x0000000087837e50       0x20 arch/arm/cpu/armv7/start.o
 .rel.data.ksz9031_driver
                0x0000000087837e70       0x30 arch/arm/cpu/armv7/start.o
 .rel.data.KS8721_driver
                0x0000000087837ea0       0x20 arch/arm/cpu/armv7/start.o
 .rel.text.check_reg
                0x0000000087837ec0        0x8 arch/arm/cpu/armv7/start.o
 .rel.text.pmic_alloc
                0x0000000087837ec8       0x18 arch/arm/cpu/armv7/start.o
 .rel.text.pmic_get
                0x0000000087837ee0        0x8 arch/arm/cpu/armv7/start.o
 .rel.text.power_get_interface
                0x0000000087837ee8        0x8 arch/arm/cpu/armv7/start.o
 .rel.text.do_pmic
                0x0000000087837ef0       0x98 arch/arm/cpu/armv7/start.o
 .rel.text.pmic_reg_write
                0x0000000087837f88       0x10 arch/arm/cpu/armv7/start.o
 .rel.text.pmic_reg_read
                0x0000000087837f98       0x10 arch/arm/cpu/armv7/start.o
 .rel.text.pmic_probe
                0x0000000087837fa8        0x8 arch/arm/cpu/armv7/start.o
 .rel.u_boot_list_2_cmd_2_pmic
                0x0000000087837fb0       0x20 arch/arm/cpu/armv7/start.o
 .rel.data.pmic_list
                0x0000000087837fd0       0x10 arch/arm/cpu/armv7/start.o
 .rel.text.power_pfuze3000_init
                0x0000000087837fe0       0x18 arch/arm/cpu/armv7/start.o
 .rel.text.get_current
                0x0000000087837ff8       0x10 arch/arm/cpu/armv7/start.o
 .rel.text.serial_register
                0x0000000087838008        0x8 arch/arm/cpu/armv7/start.o
 .rel.text.serial_stdio_init
                0x0000000087838010       0x38 arch/arm/cpu/armv7/start.o
 .rel.text.serial_assign
                0x0000000087838048       0x10 arch/arm/cpu/armv7/start.o
 .rel.text.serial_reinit_all
                0x0000000087838058        0x0 arch/arm/cpu/armv7/start.o
 .rel.text.on_baudrate
                0x0000000087838058       0x18 arch/arm/cpu/armv7/start.o
 .rel.text.mxc_serial_initialize
                0x0000000087838070        0x8 arch/arm/cpu/armv7/start.o
 .rel.text.default_serial_console
                0x0000000087838078        0x8 arch/arm/cpu/armv7/start.o
 .rel.u_boot_list_2_env_clbk_2_baudrate
                0x0000000087838080       0x10 arch/arm/cpu/armv7/start.o
 .rel.data.mxc_serial_drv
                0x0000000087838090       0x30 arch/arm/cpu/armv7/start.o
 .rel.text.spi_set_wordlen
                0x00000000878380c0        0x0 arch/arm/cpu/armv7/start.o
 .rel.text.fsl_qspi_runcmd
                0x00000000878380c0        0x8 arch/arm/cpu/armv7/start.o
 .rel.text.spi_setup_slave
                0x00000000878380c8       0x28 arch/arm/cpu/armv7/start.o
 .rel.text.spi_xfer
                0x00000000878380f0       0x10 arch/arm/cpu/armv7/start.o
 .rel.text.is_eth_dev_on_usb_host
                0x0000000087838100        0x0 arch/arm/cpu/armv7/start.o
 .rel.text.usb_host_eth_scan
                0x0000000087838100       0x40 arch/arm/cpu/armv7/start.o
 .rel.text.asix_init
                0x0000000087838140       0x18 arch/arm/cpu/armv7/start.o
 .rel.text.asix_eth_before_probe
                0x0000000087838158        0x8 arch/arm/cpu/armv7/start.o
 .rel.text.asix_eth_probe
                0x0000000087838160        0x8 arch/arm/cpu/armv7/start.o
 .rel.text.asix_eth_get_info
                0x0000000087838168       0x40 arch/arm/cpu/armv7/start.o
 .rel.rodata.prob_dev
                0x00000000878381a8       0x18 arch/arm/cpu/armv7/start.o
 .rel.text.ehci_shutdown
                0x00000000878381c0        0x8 arch/arm/cpu/armv7/start.o
 .rel.text.ehci_td_buffer
                0x00000000878381c8        0x8 arch/arm/cpu/armv7/start.o
 .rel.text.ehci_submit_async
                0x00000000878381d0       0x30 arch/arm/cpu/armv7/start.o
 .rel.text.disable_periodic.isra.2
                0x0000000087838200        0x8 arch/arm/cpu/armv7/start.o
 .rel.text.enable_periodic.isra.3
                0x0000000087838208        0x8 arch/arm/cpu/armv7/start.o
 .rel.text.ehci_set_usbmode
                0x0000000087838210        0x0 arch/arm/cpu/armv7/start.o
 .rel.text.ehci_submit_root
                0x0000000087838210       0x28 arch/arm/cpu/armv7/start.o
 .rel.text.usb_lowlevel_stop
                0x0000000087838238        0x8 arch/arm/cpu/armv7/start.o
 .rel.text.usb_lowlevel_init
                0x0000000087838240       0x20 arch/arm/cpu/armv7/start.o
 .rel.text.create_int_queue
                0x0000000087838260       0x10 arch/arm/cpu/armv7/start.o
 .rel.text.destroy_int_queue
                0x0000000087838270        0x8 arch/arm/cpu/armv7/start.o
 .rel.text.submit_int_msg
                0x0000000087838278        0x8 arch/arm/cpu/armv7/start.o
 .rel.text.usb_phy_mode
                0x0000000087838280        0x8 arch/arm/cpu/armv7/start.o
 .rel.text.ehci_hcd_init
                0x0000000087838288        0x8 arch/arm/cpu/armv7/start.o
 .rel.text.fs_probe_unsupported
                0x0000000087838290        0x8 arch/arm/cpu/armv7/start.o
 .rel.text.fs_get_info
                0x0000000087838298        0x8 arch/arm/cpu/armv7/start.o
 .rel.text.fs_close
                0x00000000878382a0        0x8 arch/arm/cpu/armv7/start.o
 .rel.text.fs_set_blk_dev
                0x00000000878382a8       0x28 arch/arm/cpu/armv7/start.o
 .rel.text.fs_uuid
                0x00000000878382d0        0x0 arch/arm/cpu/armv7/start.o
 .rel.text.fs_ls
                0x00000000878382d0        0x8 arch/arm/cpu/armv7/start.o
 .rel.text.fs_exists
                0x00000000878382d8        0x8 arch/arm/cpu/armv7/start.o
 .rel.text.fs_size
                0x00000000878382e0        0x8 arch/arm/cpu/armv7/start.o
 .rel.text.fs_read
                0x00000000878382e8       0x10 arch/arm/cpu/armv7/start.o
 .rel.text.fs_write
                0x00000000878382f8        0x0 arch/arm/cpu/armv7/start.o
 .rel.text.do_size
                0x00000000878382f8        0x8 arch/arm/cpu/armv7/start.o
 .rel.text.do_load
                0x0000000087838300       0x48 arch/arm/cpu/armv7/start.o
 .rel.text.do_ls
                0x0000000087838348        0x8 arch/arm/cpu/armv7/start.o
 .rel.text.do_save
                0x0000000087838350        0x0 arch/arm/cpu/armv7/start.o
 .rel.text.do_fs_uuid
                0x0000000087838350        0x0 arch/arm/cpu/armv7/start.o
 .rel.text.do_fs_type
                0x0000000087838350        0x0 arch/arm/cpu/armv7/start.o
 .rel.text.get_fs
                0x0000000087838350        0x8 arch/arm/cpu/armv7/start.o
 .rel.text.ext4fs_free_node
                0x0000000087838358        0x8 arch/arm/cpu/armv7/start.o
 .rel.text.ext4fs_read_file
                0x0000000087838360        0x8 arch/arm/cpu/armv7/start.o
 .rel.text.ext4fs_ls
                0x0000000087838368       0x10 arch/arm/cpu/armv7/start.o
 .rel.text.ext4fs_read
                0x0000000087838378       0x10 arch/arm/cpu/armv7/start.o
 .rel.text.ext4_read_file
                0x0000000087838388       0x10 arch/arm/cpu/armv7/start.o
 .rel.text.ext4fs_uuid
                0x0000000087838398        0x8 arch/arm/cpu/armv7/start.o
 .rel.text.read_allocated_block
                0x00000000878383a0       0xd0 arch/arm/cpu/armv7/start.o
 .rel.text.ext4fs_reinit_global
                0x0000000087838470       0x48 arch/arm/cpu/armv7/start.o
 .rel.text.ext4fs_close
                0x00000000878384b8       0x10 arch/arm/cpu/armv7/start.o
 .rel.text.ext4fs_iterate_dir
                0x00000000878384c8       0x28 arch/arm/cpu/armv7/start.o
 .rel.text.ext4fs_find_file1
                0x00000000878384f0       0x10 arch/arm/cpu/armv7/start.o
 .rel.text.ext4fs_find_file
                0x0000000087838500        0x8 arch/arm/cpu/armv7/start.o
 .rel.text.ext4fs_open
                0x0000000087838508       0x10 arch/arm/cpu/armv7/start.o
 .rel.text.ext4fs_mount
                0x0000000087838518       0x10 arch/arm/cpu/armv7/start.o
 .rel.text.ext4fs_set_blk_dev
                0x0000000087838528       0x18 arch/arm/cpu/armv7/start.o
 .rel.text.ext4fs_devread
                0x0000000087838540       0x38 arch/arm/cpu/armv7/start.o
 .rel.text.downcase
                0x0000000087838578        0x8 arch/arm/cpu/armv7/start.o
 .rel.text.disk_read
                0x0000000087838580       0x10 arch/arm/cpu/armv7/start.o
 .rel.text.get_cluster
                0x0000000087838590        0x8 arch/arm/cpu/armv7/start.o
 .rel.text.read_bootsectandvi
                0x0000000087838598       0x20 arch/arm/cpu/armv7/start.o
 .rel.text.get_vfatname
                0x00000000878385b8       0x10 arch/arm/cpu/armv7/start.o
 .rel.text.fat_set_blk_dev
                0x00000000878385c8       0x28 arch/arm/cpu/armv7/start.o
 .rel.text.fat_register_device
                0x00000000878385f0        0x0 arch/arm/cpu/armv7/start.o
 .rel.text.do_fat_read_at
                0x00000000878385f0       0x80 arch/arm/cpu/armv7/start.o
 .rel.text.file_fat_detectfs
                0x0000000087838670       0x70 arch/arm/cpu/armv7/start.o
 .rel.text.file_fat_read_at
                0x00000000878386e0        0x8 arch/arm/cpu/armv7/start.o
 .rel.text.fat_read_file
                0x00000000878386e8        0x8 arch/arm/cpu/armv7/start.o
 .rel.text.file_getfsname
                0x00000000878386f0        0x0 arch/arm/cpu/armv7/start.o
 .rel.text.file_cd
                0x00000000878386f0        0x0 arch/arm/cpu/armv7/start.o
 .rel.text.file_detectfs
                0x00000000878386f0        0x0 arch/arm/cpu/armv7/start.o
 .rel.text.file_ls
                0x00000000878386f0        0x0 arch/arm/cpu/armv7/start.o
 .rel.text.file_read
                0x00000000878386f0        0x0 arch/arm/cpu/armv7/start.o
 .rel.rodata.filesystems
                0x00000000878386f0        0x0 arch/arm/cpu/armv7/start.o
 .rel.data.fstypes
                0x00000000878386f0       0xd8 arch/arm/cpu/armv7/start.o
 .rel.text.inflate_fast
                0x00000000878387c8       0x18 arch/arm/cpu/armv7/start.o
 .rel.text.inflate_table
                0x00000000878387e0       0x20 arch/arm/cpu/armv7/start.o
 .rel.text.inflateInit2_
                0x0000000087838800       0x10 arch/arm/cpu/armv7/start.o
 .rel.text.inflate
                0x0000000087838810       0xa0 arch/arm/cpu/armv7/start.o
 .rel.text.fdt_get_phandle
                0x00000000878388b0        0x0 arch/arm/cpu/armv7/start.o
 .rel.text.fdt_get_alias_namelen
                0x00000000878388b0        0x8 arch/arm/cpu/armv7/start.o
 .rel.text.fdt_node_check_compatible
                0x00000000878388b8        0x8 arch/arm/cpu/armv7/start.o
 .rel.text.fdt_strerror
                0x00000000878388c0       0x20 arch/arm/cpu/armv7/start.o
 .rel.text.fdt_create_empty_tree
                0x00000000878388e0        0x0 arch/arm/cpu/armv7/start.o
 .rel.text.fdt_address_cells
                0x00000000878388e0        0x8 arch/arm/cpu/armv7/start.o
 .rel.text.fdt_size_cells
                0x00000000878388e8        0x8 arch/arm/cpu/armv7/start.o
 .rel.text.crc7
                0x00000000878388f0        0x0 arch/arm/cpu/armv7/start.o
 .rel.text.cyg_crc16
                0x00000000878388f0        0x8 arch/arm/cpu/armv7/start.o
 .rel.text.zunzip
                0x00000000878388f8       0x28 arch/arm/cpu/armv7/start.o
 .rel.text.gunzip
                0x0000000087838920       0x10 arch/arm/cpu/armv7/start.o
 .rel.text.initcall_run_list
                0x0000000087838930        0x8 arch/arm/cpu/armv7/start.o
 .rel.text.lmb_alloc_base
                0x0000000087838938        0x8 arch/arm/cpu/armv7/start.o
 .rel.text.strmhz
                0x0000000087838940        0x0 arch/arm/cpu/armv7/start.o
 .rel.text.list_sort
                0x0000000087838940        0x0 arch/arm/cpu/armv7/start.o
 .rel.text.match_string.isra.2
                0x0000000087838940        0x8 arch/arm/cpu/armv7/start.o
 .rel.text.hcreate_r
                0x0000000087838948        0x8 arch/arm/cpu/armv7/start.o
 .rel.text.hdestroy_r
                0x0000000087838950        0x8 arch/arm/cpu/armv7/start.o
 .rel.text.hmatch_r
                0x0000000087838958        0x8 arch/arm/cpu/armv7/start.o
 .rel.text.hsearch_r
                0x0000000087838960        0x8 arch/arm/cpu/armv7/start.o
 .rel.text.hdelete_r
                0x0000000087838968        0x8 arch/arm/cpu/armv7/start.o
 .rel.text.hexport_r
                0x0000000087838970       0x18 arch/arm/cpu/armv7/start.o
 .rel.text.himport_r
                0x0000000087838988       0x20 arch/arm/cpu/armv7/start.o
 .rel.text.display_options
                0x00000000878389a8       0x10 arch/arm/cpu/armv7/start.o
 .rel.text.print_size
                0x00000000878389b8       0x28 arch/arm/cpu/armv7/start.o
 .rel.text.print_buffer
                0x00000000878389e0       0x28 arch/arm/cpu/armv7/start.o
 .rel.text.crc32_no_comp
                0x0000000087838a08        0x8 arch/arm/cpu/armv7/start.o
 .rel.text.hang
                0x0000000087838a10        0x8 arch/arm/cpu/armv7/start.o
 .rel.text.skip_spaces
                0x0000000087838a18        0x8 arch/arm/cpu/armv7/start.o
 .rel.text.strim
                0x0000000087838a20        0x8 arch/arm/cpu/armv7/start.o
 .rel.text.strncasecmp
                0x0000000087838a28        0x0 arch/arm/cpu/armv7/start.o
 .rel.text.strtok
                0x0000000087838a28        0x0 arch/arm/cpu/armv7/start.o
 .rel.text.string.isra.0
                0x0000000087838a28        0x8 arch/arm/cpu/armv7/start.o
 .rel.text.number.isra.4
                0x0000000087838a30        0x8 arch/arm/cpu/armv7/start.o
 .rel.text.vsnprintf_internal.isra.6
                0x0000000087838a38       0x10 arch/arm/cpu/armv7/start.o
 .rel.text.simple_strtoul
                0x0000000087838a48        0x8 arch/arm/cpu/armv7/start.o
 .rel.text.simple_strtoull
                0x0000000087838a50        0x8 arch/arm/cpu/armv7/start.o
 .rel.text.__assert_fail
                0x0000000087838a58        0x0 arch/arm/cpu/armv7/start.o
 .rel.text.simple_itoa
                0x0000000087838a58        0x8 arch/arm/cpu/armv7/start.o
 .rel.text.print_grouped_ull
                0x0000000087838a60        0x0 arch/arm/cpu/armv7/start.o
 .rel.rodata.z_errmsg
                0x0000000087838a60        0x0 arch/arm/cpu/armv7/start.o
 .rel.rodata.fdt_errtable
                0x0000000087838a60       0x58 arch/arm/cpu/armv7/start.o
 .rel.data.current
                0x0000000087838ab8        0x0 arch/arm/cpu/armv7/start.o
 .rel.text.ArpInit
                0x0000000087838ab8       0x30 arch/arm/cpu/armv7/start.o
 .rel.text.arp_raw_request
                0x0000000087838ae8       0x18 arch/arm/cpu/armv7/start.o
 .rel.text.ArpRequest
                0x0000000087838b00       0x38 arch/arm/cpu/armv7/start.o
 .rel.text.ArpTimeoutCheck
                0x0000000087838b38       0x20 arch/arm/cpu/armv7/start.o
 .rel.text.ArpReceive
                0x0000000087838b58       0x40 arch/arm/cpu/armv7/start.o
 .rel.text.DhcpOptionsProcess
                0x0000000087838b98       0x68 arch/arm/cpu/armv7/start.o
 .rel.text.DhcpHandler
                0x0000000087838c00       0x88 arch/arm/cpu/armv7/start.o
 .rel.text.BootpReset
                0x0000000087838c88       0x20 arch/arm/cpu/armv7/start.o
 .rel.text.BootpRequest
                0x0000000087838ca8       0x60 arch/arm/cpu/armv7/start.o
 .rel.text.BootpTimeout
                0x0000000087838d08       0x20 arch/arm/cpu/armv7/start.o
 .rel.text.eth_current_changed
                0x0000000087838d28       0x10 arch/arm/cpu/armv7/start.o
 .rel.text.eth_setenv_enetaddr
                0x0000000087838d38        0x8 arch/arm/cpu/armv7/start.o
 .rel.text.eth_getenv_enetaddr_by_index
                0x0000000087838d40       0x10 arch/arm/cpu/armv7/start.o
 .rel.text.eth_get_dev_by_name
                0x0000000087838d50        0x0 arch/arm/cpu/armv7/start.o
 .rel.text.eth_get_dev_by_index
                0x0000000087838d50        0x8 arch/arm/cpu/armv7/start.o
 .rel.text.eth_get_dev_index
                0x0000000087838d58        0x8 arch/arm/cpu/armv7/start.o
 .rel.text.eth_write_hwaddr
                0x0000000087838d60       0x60 arch/arm/cpu/armv7/start.o
 .rel.text.eth_register
                0x0000000087838dc0       0x18 arch/arm/cpu/armv7/start.o
 .rel.text.eth_unregister
                0x0000000087838dd8       0x10 arch/arm/cpu/armv7/start.o
 .rel.text.eth_initialize
                0x0000000087838de8       0x88 arch/arm/cpu/armv7/start.o
 .rel.text.eth_halt
                0x0000000087838e70        0x8 arch/arm/cpu/armv7/start.o
 .rel.text.eth_send
                0x0000000087838e78        0x8 arch/arm/cpu/armv7/start.o
 .rel.text.eth_rx
                0x0000000087838e80        0x8 arch/arm/cpu/armv7/start.o
 .rel.text.eth_try_another
                0x0000000087838e88       0x28 arch/arm/cpu/armv7/start.o
 .rel.text.eth_init
                0x0000000087838eb0       0x20 arch/arm/cpu/armv7/start.o
 .rel.text.eth_set_current
                0x0000000087838ed0       0x20 arch/arm/cpu/armv7/start.o
 .rel.text.eth_get_name
                0x0000000087838ef0       0x10 arch/arm/cpu/armv7/start.o
 .rel.text.net_clear_handlers
                0x0000000087838f00       0x20 arch/arm/cpu/armv7/start.o
 .rel.text.startAgainTimeout
                0x0000000087838f20        0x8 arch/arm/cpu/armv7/start.o
 .rel.text.net_auto_load
                0x0000000087838f28       0x18 arch/arm/cpu/armv7/start.o
 .rel.text.NetStartAgain
                0x0000000087838f40       0x78 arch/arm/cpu/armv7/start.o
 .rel.text.net_get_udp_handler
                0x0000000087838fb8        0x0 arch/arm/cpu/armv7/start.o
 .rel.text.net_set_udp_handler
                0x0000000087838fb8       0x10 arch/arm/cpu/armv7/start.o
 .rel.text.net_get_arp_handler
                0x0000000087838fc8        0x8 arch/arm/cpu/armv7/start.o
 .rel.text.net_set_arp_handler
                0x0000000087838fd0        0x0 arch/arm/cpu/armv7/start.o
 .rel.text.NetSetTimeout
                0x0000000087838fd0       0x18 arch/arm/cpu/armv7/start.o
 .rel.text.NetReceive
                0x0000000087838fe8       0x38 arch/arm/cpu/armv7/start.o
 .rel.text.NetEthHdrSize
                0x0000000087839020        0x8 arch/arm/cpu/armv7/start.o
 .rel.text.NetSetEther
                0x0000000087839028       0x10 arch/arm/cpu/armv7/start.o
 .rel.text.net_update_ether
                0x0000000087839038        0x8 arch/arm/cpu/armv7/start.o
 .rel.text.net_set_ip_header
                0x0000000087839040        0x8 arch/arm/cpu/armv7/start.o
 .rel.text.net_set_udp_header
                0x0000000087839048        0x8 arch/arm/cpu/armv7/start.o
 .rel.text.NetSendUDPPacket
                0x0000000087839050       0x40 arch/arm/cpu/armv7/start.o
 .rel.text.on_bootfile
                0x0000000087839090        0x8 arch/arm/cpu/armv7/start.o
 .rel.text.ip_to_string
                0x0000000087839098        0x8 arch/arm/cpu/armv7/start.o
 .rel.text.VLAN_to_string
                0x00000000878390a0        0x0 arch/arm/cpu/armv7/start.o
 .rel.text.NetInitLoop
                0x00000000878390a0       0x78 arch/arm/cpu/armv7/start.o
 .rel.text.net_init
                0x0000000087839118       0x20 arch/arm/cpu/armv7/start.o
 .rel.text.NetLoop
                0x0000000087839138      0x110 arch/arm/cpu/armv7/start.o
 .rel.text.rpc_lookup_reply
                0x0000000087839248       0x18 arch/arm/cpu/armv7/start.o
 .rel.text.nfs_mount_reply
                0x0000000087839260       0x18 arch/arm/cpu/armv7/start.o
 .rel.text.nfs_umountall_reply
                0x0000000087839278       0x18 arch/arm/cpu/armv7/start.o
 .rel.text.nfs_lookup_reply
                0x0000000087839290       0x10 arch/arm/cpu/armv7/start.o
 .rel.text.nfs_readlink_reply
                0x00000000878392a0       0x18 arch/arm/cpu/armv7/start.o
 .rel.text.rpc_add_credentials
                0x00000000878392b8        0x8 arch/arm/cpu/armv7/start.o
 .rel.text.rpc_req
                0x00000000878392c0       0x38 arch/arm/cpu/armv7/start.o
 .rel.text.nfs_umountall_req
                0x00000000878392f8       0x10 arch/arm/cpu/armv7/start.o
 .rel.text.nfs_lookup_req
                0x0000000087839308        0x8 arch/arm/cpu/armv7/start.o
 .rel.text.nfs_read_req
                0x0000000087839310        0x8 arch/arm/cpu/armv7/start.o
 .rel.text.nfs_readlink_req
                0x0000000087839318        0x8 arch/arm/cpu/armv7/start.o
 .rel.text.nfs_read_reply.isra.0
                0x0000000087839320       0x28 arch/arm/cpu/armv7/start.o
 .rel.text.NfsSend
                0x0000000087839348       0x28 arch/arm/cpu/armv7/start.o
 .rel.text.NfsHandler
                0x0000000087839370       0x70 arch/arm/cpu/armv7/start.o
 .rel.text.NfsTimeout
                0x00000000878393e0       0x20 arch/arm/cpu/armv7/start.o
 .rel.text.NfsStart
                0x0000000087839400       0xe0 arch/arm/cpu/armv7/start.o
 .rel.text.ping_timeout
                0x00000000878394e0        0x8 arch/arm/cpu/armv7/start.o
 .rel.text.ping_start
                0x00000000878394e8       0x58 arch/arm/cpu/armv7/start.o
 .rel.text.ping_receive
                0x0000000087839540       0x18 arch/arm/cpu/armv7/start.o
 .rel.text.TftpSend
                0x0000000087839558       0x80 arch/arm/cpu/armv7/start.o
 .rel.text.TftpHandler
                0x00000000878395d8       0xc0 arch/arm/cpu/armv7/start.o
 .rel.text.TftpTimeout
                0x0000000087839698       0x40 arch/arm/cpu/armv7/start.o
 .rel.text.TftpStart
                0x00000000878396d8      0x130 arch/arm/cpu/armv7/start.o
 .rel.u_boot_list_2_env_clbk_2_bootfile
                0x0000000087839808       0x10 arch/arm/cpu/armv7/start.o
 .rel.text.do_dm
                0x0000000087839818        0x8 arch/arm/cpu/armv7/start.o
 .rel.text.do_dm_dump_uclass
                0x0000000087839820       0x20 arch/arm/cpu/armv7/start.o
 .rel.text.show_devices
                0x0000000087839840       0x30 arch/arm/cpu/armv7/start.o
 .rel.text.do_dm_dump_all
                0x0000000087839870       0x10 arch/arm/cpu/armv7/start.o
 .rel.u_boot_list_2_cmd_2_dm
                0x0000000087839880       0x20 arch/arm/cpu/armv7/start.o
 .rel.data.test_commands
                0x00000000878398a0       0x40 arch/arm/cpu/armv7/start.o
 .rel.text.raise
                0x00000000878398e0        0x8 arch/arm/cpu/armv7/start.o

.rel_dyn_end    0x00000000878398e8        0x0
 *(.__rel_dyn_end)
 .__rel_dyn_end
                0x00000000878398e8        0x0 arch/arm/lib/built-in.o

.end            0x00000000878398e8        0x0
 *(.__end)
 .__end         0x00000000878398e8        0x0 arch/arm/lib/built-in.o
                0x00000000878398e8                _image_binary_end = .
                0x000000008783a000                . = ALIGN (0x1000)

.mmutable
 *(.mmutable)

.bss_start      0x0000000087832238        0x0
 *(.__bss_start)
 .__bss_start   0x0000000087832238        0x0 arch/arm/lib/built-in.o
                0x0000000087832238                __bss_start
                0x0000000087832238                __bss_base = .

.bss            0x0000000087832238    0x4d094
 *(.bss*)
 .bss.ldo_bypass
                0x0000000087832238        0x4 arch/arm/cpu/armv7/built-in.o
 .bss.arm_orig_podf
                0x000000008783223c        0x4 arch/arm/cpu/armv7/built-in.o
 .bss.modes     0x0000000087832240        0x8 arch/arm/imx-common/built-in.o
 .bss.params    0x0000000087832248        0x4 arch/arm/lib/built-in.o
 .bss.flag_repeat
                0x000000008783224c        0x4 common/built-in.o
 .bss.buf.7259  0x0000000087832250       0x28 common/built-in.o
 .bss.ifs       0x0000000087832278        0x4 common/built-in.o
 .bss.last_return_code
                0x000000008783227c        0x4 common/built-in.o
 .bss.map       0x0000000087832280      0x100 common/built-in.o
 .bss.do_repeat
                0x0000000087832380        0x4 common/built-in.o
 .bss.the_command.7059
                0x0000000087832384      0x401 common/built-in.o
 *fill*         0x0000000087832785        0x3 
 .bss.top_vars  0x0000000087832788        0x4 common/built-in.o
 .bss.stored_bootdelay
                0x000000008783278c        0x4 common/built-in.o
 .bss.monitor_flash_len
                0x0000000087832790        0x4 common/built-in.o
                0x0000000087832790                monitor_flash_len
 .bss.images    0x0000000087832794      0x130 common/built-in.o
                0x0000000087832794                images
 .bss.callback_list
                0x00000000878328c4        0x4 common/built-in.o
 .bss.flags_list
                0x00000000878328c8        0x4 common/built-in.o
 .bss.working_fdt
                0x00000000878328cc        0x4 common/built-in.o
                0x00000000878328cc                working_fdt
 .bss.data.7598
                0x00000000878328d0      0x400 common/built-in.o
 .bss.i2c_mm_last_addr
                0x0000000087832cd0        0x4 common/built-in.o
 .bss.i2c_mm_last_chip
                0x0000000087832cd4        0x4 common/built-in.o
 .bss.i2c_dp_last_chip
                0x0000000087832cd8        0x4 common/built-in.o
 .bss.i2c_mm_last_alen
                0x0000000087832cdc        0x4 common/built-in.o
 .bss.i2c_dp_last_addr
                0x0000000087832ce0        0x4 common/built-in.o
 .bss.i2c_dp_last_alen
                0x0000000087832ce4        0x4 common/built-in.o
 .bss.send_parms
                0x0000000087832ce8       0x14 common/built-in.o
 .bss.os_data_addr_saved
                0x0000000087832cfc        0x4 common/built-in.o
 .bss.his_pad_char
                0x0000000087832d00        0x1 common/built-in.o
 .bss.a_b       0x0000000087832d01       0x18 common/built-in.o
 *fill*         0x0000000087832d19        0x3 
 .bss.os_data_char
                0x0000000087832d1c        0x4 common/built-in.o
 .bss.os_data_state
                0x0000000087832d20        0x4 common/built-in.o
 .bss.k_data_escape
                0x0000000087832d24        0x4 common/built-in.o
 .bss.os_data_state_saved
                0x0000000087832d28        0x4 common/built-in.o
 .bss.os_data_addr
                0x0000000087832d2c        0x4 common/built-in.o
 .bss.send_ptr  0x0000000087832d30        0x4 common/built-in.o
 .bss.his_pad_count
                0x0000000087832d34        0x4 common/built-in.o
 .bss.bin_start_address
                0x0000000087832d38        0x4 common/built-in.o
 .bss.his_quote
                0x0000000087832d3c        0x1 common/built-in.o
 *fill*         0x0000000087832d3d        0x3 
 .bss.os_data_init
                0x0000000087832d40        0x4 common/built-in.o
 .bss.his_eol   0x0000000087832d44        0x1 common/built-in.o
 *fill*         0x0000000087832d45        0x3 
 .bss.k_data_escape_saved
                0x0000000087832d48        0x4 common/built-in.o
 .bss.dp_last_addr
                0x0000000087832d4c        0x4 common/built-in.o
 .bss.base_address
                0x0000000087832d50        0x4 common/built-in.o
 .bss.mm_last_size
                0x0000000087832d54        0x4 common/built-in.o
 .bss.mm_last_addr
                0x0000000087832d58        0x4 common/built-in.o
 .bss.dp_last_size
                0x0000000087832d5c        0x4 common/built-in.o
 .bss.current_mii
                0x0000000087832d60        0x4 common/built-in.o
 .bss.mii_devs  0x0000000087832d64        0x8 common/built-in.o
 .bss.last_data
                0x0000000087832d6c        0x8 common/built-in.o
 .bss.last_reg_hi
                0x0000000087832d74        0x8 common/built-in.o
 .bss.last_addr_lo
                0x0000000087832d7c        0x8 common/built-in.o
 .bss.last_op   0x0000000087832d84        0x4 common/built-in.o
 .bss.last_addr_hi
                0x0000000087832d88        0x8 common/built-in.o
 .bss.last_reg_lo
                0x0000000087832d90        0x8 common/built-in.o
 .bss.last_devad_hi
                0x0000000087832d98        0x4 common/built-in.o
 .bss.last_devad_lo
                0x0000000087832d9c        0x4 common/built-in.o
 .bss.flash     0x0000000087832da0        0x4 common/built-in.o
 .bss.dev_index
                0x0000000087832da4        0x4 common/built-in.o
 *fill*         0x0000000087832da8       0x18 
 .bss.usb_dev   0x0000000087832dc0    0x12c00 common/built-in.o
 .bss.asynch_allowed
                0x00000000878459c0        0x4 common/built-in.o
 .bss.usb_started
                0x00000000878459c4        0x1 common/built-in.o
                0x00000000878459c4                usb_started
 *fill*         0x00000000878459c5        0x3 
 .bss.usb_hub_index
                0x00000000878459c8        0x4 common/built-in.o
 .bss.hub_dev   0x00000000878459cc      0x100 common/built-in.o
 .bss.usb_stor  0x0000000087845acc      0x104 common/built-in.o
 .bss.usb_dev_desc
                0x0000000087845bd0      0x244 common/built-in.o
 .bss.usb_max_devs
                0x0000000087845e14        0x4 common/built-in.o
 .bss.CBWTag    0x0000000087845e18        0x4 common/built-in.o
 *fill*         0x0000000087845e1c        0x4 
 .bss.usb_ccb   0x0000000087845e20       0xa0 common/built-in.o
 .bss.ctrlc_was_pressed
                0x0000000087845ec0        0x4 common/built-in.o
 .bss.ctrlc_disabled
                0x0000000087845ec4        0x4 common/built-in.o
 .bss.max_total_mem
                0x0000000087845ec8        0x4 common/built-in.o
 .bss.mem_malloc_brk
                0x0000000087845ecc        0x4 common/built-in.o
                0x0000000087845ecc                mem_malloc_brk
 .bss.max_sbrked_mem
                0x0000000087845ed0        0x4 common/built-in.o
 .bss.current_mallinfo
                0x0000000087845ed4       0x28 common/built-in.o
 .bss.mem_malloc_end
                0x0000000087845efc        0x4 common/built-in.o
                0x0000000087845efc                mem_malloc_end
 .bss.top_pad   0x0000000087845f00        0x4 common/built-in.o
 .bss.mem_malloc_start
                0x0000000087845f04        0x4 common/built-in.o
                0x0000000087845f04                mem_malloc_start
 .bss.stdio_devices
                0x0000000087845f08        0xc common/built-in.o
                0x0000000087845f08                stdio_devices
 .bss.devs      0x0000000087845f14       0x4c common/built-in.o
 .bss.hist_list
                0x0000000087845f60       0x50 common/built-in.o
 .bss.hist_lines
                0x0000000087845fb0     0x5014 common/built-in.o
 .bss.hist_max  0x000000008784afc4        0x4 common/built-in.o
 .bss.hist_add_idx
                0x000000008784afc8        0x4 common/built-in.o
 .bss.hist_num  0x000000008784afcc        0x4 common/built-in.o
 .bss.console_buffer
                0x000000008784afd0      0x401 common/built-in.o
                0x000000008784afd0                console_buffer
 *fill*         0x000000008784b3d1        0x3 
 .bss.initted.6938
                0x000000008784b3d4        0x4 common/built-in.o
 .bss.tmp_buf.6823
                0x000000008784b3d8      0x200 common/built-in.o
 .bss.tmp_buf   0x000000008784b5d8      0x400 common/built-in.o
 .bss.xyz       0x000000008784b9d8      0x434 common/built-in.o
 .bss.mmc_devices
                0x000000008784be0c        0x8 drivers/mmc/built-in.o
 .bss.serial_devices
                0x000000008784be14        0x4 drivers/serial/built-in.o
 .bss.serial_current
                0x000000008784be18        0x4 drivers/serial/built-in.o
 .bss.addr.7296
                0x000000008784be1c        0x4 drivers/spi/built-in.o
 .bss.opcode.7295
                0x000000008784be20        0x1 drivers/spi/built-in.o
 *fill*         0x000000008784be21        0x3 
 .bss.usb_eth   0x000000008784be24      0x1a4 drivers/usb/eth/built-in.o
 .bss.usb_max_eth_dev
                0x000000008784bfc8        0x4 drivers/usb/eth/built-in.o
 .bss.curr_eth_dev
                0x000000008784bfcc        0x4 drivers/usb/eth/built-in.o
 *fill*         0x000000008784bfd0       0x10 
 .bss.ehcic     0x000000008784bfe0      0x200 drivers/usb/host/built-in.o
 .bss.fs_partition
                0x000000008784c1e0       0x50 fs/built-in.o
 .bss.fs_type   0x000000008784c230        0x4 fs/built-in.o
 .bss.fs_dev_desc
                0x000000008784c234        0x4 fs/built-in.o
 .bss.ext_fs    0x000000008784c238       0x48 fs/built-in.o
                0x000000008784c238                ext_fs
 .bss.ext4fs_indir3_block
                0x000000008784c280        0x4 fs/built-in.o
                0x000000008784c280                ext4fs_indir3_block
 .bss.ext4fs_root
                0x000000008784c284        0x4 fs/built-in.o
                0x000000008784c284                ext4fs_root
 .bss.ext4fs_indir3_size
                0x000000008784c288        0x4 fs/built-in.o
                0x000000008784c288                ext4fs_indir3_size
 .bss.ext4fs_indir1_block
                0x000000008784c28c        0x4 fs/built-in.o
                0x000000008784c28c                ext4fs_indir1_block
 .bss.ext4fs_indir2_size
                0x000000008784c290        0x4 fs/built-in.o
                0x000000008784c290                ext4fs_indir2_size
 .bss.ext4fs_indir2_block
                0x000000008784c294        0x4 fs/built-in.o
                0x000000008784c294                ext4fs_indir2_block
 .bss.ext4fs_indir1_size
                0x000000008784c298        0x4 fs/built-in.o
                0x000000008784c298                ext4fs_indir1_size
 .bss.symlinknest
                0x000000008784c29c        0x4 fs/built-in.o
 .bss.ext4fs_file
                0x000000008784c2a0        0x4 fs/built-in.o
                0x000000008784c2a0                ext4fs_file
 .bss.part_info
                0x000000008784c2a4        0x4 fs/built-in.o
 .bss.ext4fs_block_dev_desc
                0x000000008784c2a8        0x4 fs/built-in.o
 .bss.part_offset
                0x000000008784c2ac        0x4 fs/built-in.o
                0x000000008784c2ac                part_offset
 *fill*         0x000000008784c2b0       0x10 
 .bss.do_fat_read_at_block
                0x000000008784c2c0    0x10000 fs/built-in.o
                0x000000008784c2c0                do_fat_read_at_block
 .bss.get_dentfromdir_block
                0x000000008785c2c0    0x10000 fs/built-in.o
                0x000000008785c2c0                get_dentfromdir_block
 .bss.cur_part_info
                0x000000008786c2c0       0x50 fs/built-in.o
 *fill*         0x000000008786c310       0x10 
 .bss.get_contents_vfatname_block
                0x000000008786c320    0x10000 fs/built-in.o
                0x000000008786c320                get_contents_vfatname_block
 .bss.cur_dev   0x000000008787c320        0x4 fs/built-in.o
 .bss.errno     0x000000008787c324        0x4 lib/built-in.o
                0x000000008787c324                errno
 .bss.local.7048
                0x000000008787c328       0x16 lib/built-in.o
 *fill*         0x000000008787c33e        0x2 
 .bss.NetArpWaitPacketIP
                0x000000008787c340        0x4 net/built-in.o
                0x000000008787c340                NetArpWaitPacketIP
 .bss.NetArpWaitTimerStart
                0x000000008787c344        0x4 net/built-in.o
                0x000000008787c344                NetArpWaitTimerStart
 .bss.NetArpWaitReplyIP
                0x000000008787c348        0x4 net/built-in.o
 .bss.NetArpWaitTxPacketSize
                0x000000008787c34c        0x4 net/built-in.o
                0x000000008787c34c                NetArpWaitTxPacketSize
 .bss.NetArpWaitTry
                0x000000008787c350        0x4 net/built-in.o
                0x000000008787c350                NetArpWaitTry
 .bss.NetArpTxPacket
                0x000000008787c354        0x4 net/built-in.o
 .bss.NetArpPacketBuf
                0x000000008787c358      0x620 net/built-in.o
 .bss.NetArpWaitPacketMAC
                0x000000008787c978        0x4 net/built-in.o
                0x000000008787c978                NetArpWaitPacketMAC
 .bss.dhcp_state
                0x000000008787c97c        0x4 net/built-in.o
 .bss.BootpTry  0x000000008787c980        0x4 net/built-in.o
                0x000000008787c980                BootpTry
 .bss.NetDHCPServerIP
                0x000000008787c984        0x4 net/built-in.o
 .bss.bootp_timeout
                0x000000008787c988        0x4 net/built-in.o
                0x000000008787c988                bootp_timeout
 .bss.bootp_ids
                0x000000008787c98c       0x10 net/built-in.o
                0x000000008787c98c                bootp_ids
 .bss.bootp_num_ids
                0x000000008787c99c        0x4 net/built-in.o
                0x000000008787c99c                bootp_num_ids
 .bss.bootp_start
                0x000000008787c9a0        0x4 net/built-in.o
                0x000000008787c9a0                bootp_start
 .bss.dhcp_leasetime
                0x000000008787c9a4        0x4 net/built-in.o
 .bss.env_changed_id.7331
                0x000000008787c9a8        0x4 net/built-in.o
 .bss.act.7330  0x000000008787c9ac        0x4 net/built-in.o
 .bss.eth_current
                0x000000008787c9b0        0x4 net/built-in.o
                0x000000008787c9b0                eth_current
 .bss.index.7278
                0x000000008787c9b4        0x4 net/built-in.o
 .bss.first_failed.7325
                0x000000008787c9b8        0x4 net/built-in.o
 .bss.eth_devices
                0x000000008787c9bc        0x4 net/built-in.o
 .bss.NetOurEther
                0x000000008787c9c0        0x6 net/built-in.o
                0x000000008787c9c0                NetOurEther
 *fill*         0x000000008787c9c6        0x2 
 .bss.NetServerIP
                0x000000008787c9c8        0x4 net/built-in.o
                0x000000008787c9c8                NetServerIP
 .bss.NetRestarted
                0x000000008787c9cc        0x4 net/built-in.o
 .bss.net_state
                0x000000008787c9d0        0x4 net/built-in.o
                0x000000008787c9d0                net_state
 .bss.NetRxPackets
                0x000000008787c9d4       0x10 net/built-in.o
                0x000000008787c9d4                NetRxPackets
 .bss.NetBootFileSize
                0x000000008787c9e4        0x2 net/built-in.o
                0x000000008787c9e4                NetBootFileSize
 .bss.NetEtherNullAddr
                0x000000008787c9e6        0x6 net/built-in.o
                0x000000008787c9e6                NetEtherNullAddr
 .bss.NetRxPacket
                0x000000008787c9ec        0x4 net/built-in.o
                0x000000008787c9ec                NetRxPacket
 .bss.udp_packet_handler
                0x000000008787c9f0        0x4 net/built-in.o
 .bss.NetDevExists
                0x000000008787c9f4        0x4 net/built-in.o
 .bss.timeStart
                0x000000008787c9f8        0x4 net/built-in.o
 .bss.timeHandler
                0x000000008787c9fc        0x4 net/built-in.o
 .bss.NetTryCount
                0x000000008787ca00        0x4 net/built-in.o
 .bss.NetOurNISDomain
                0x000000008787ca04       0x20 net/built-in.o
                0x000000008787ca04                NetOurNISDomain
 .bss.NetOurDNSIP
                0x000000008787ca24        0x4 net/built-in.o
                0x000000008787ca24                NetOurDNSIP
 .bss.NetOurSubnetMask
                0x000000008787ca28        0x4 net/built-in.o
                0x000000008787ca28                NetOurSubnetMask
 .bss.NetTxPacket
                0x000000008787ca2c        0x4 net/built-in.o
                0x000000008787ca2c                NetTxPacket
 .bss.NetBootFileXferSize
                0x000000008787ca30        0x4 net/built-in.o
                0x000000008787ca30                NetBootFileXferSize
 .bss.NetOurIP  0x000000008787ca34        0x4 net/built-in.o
                0x000000008787ca34                NetOurIP
 .bss.env_changed_id.7249
                0x000000008787ca38        0x4 net/built-in.o
 .bss.NetIPID   0x000000008787ca3c        0x4 net/built-in.o
                0x000000008787ca3c                NetIPID
 .bss.NetOurGatewayIP
                0x000000008787ca40        0x4 net/built-in.o
                0x000000008787ca40                NetOurGatewayIP
 .bss.arp_packet_handler
                0x000000008787ca44        0x4 net/built-in.o
 .bss.NetOurHostName
                0x000000008787ca48       0x20 net/built-in.o
                0x000000008787ca48                NetOurHostName
 .bss.NetRestartWrap
                0x000000008787ca68        0x4 net/built-in.o
                0x000000008787ca68                NetRestartWrap
 .bss.NetRxPacketLen
                0x000000008787ca6c        0x4 net/built-in.o
                0x000000008787ca6c                NetRxPacketLen
 .bss.BootFile  0x000000008787ca70       0x80 net/built-in.o
                0x000000008787ca70                BootFile
 .bss.timeDelta
                0x000000008787caf0        0x4 net/built-in.o
 .bss.NetServerEther
                0x000000008787caf4        0x6 net/built-in.o
                0x000000008787caf4                NetServerEther
 .bss.PktBuf    0x000000008787cafa     0x1e20 net/built-in.o
 .bss.NetOurRootPath
                0x000000008787e91a       0x40 net/built-in.o
                0x000000008787e91a                NetOurRootPath
 *fill*         0x000000008787e95a        0x2 
 .bss.NfsOurPort
                0x000000008787e95c        0x4 net/built-in.o
 .bss.NfsServerIP
                0x000000008787e960        0x4 net/built-in.o
 .bss.nfs_filename
                0x000000008787e964        0x4 net/built-in.o
 .bss.nfs_len   0x000000008787e968        0x4 net/built-in.o
 .bss.NfsSrvMountPort
                0x000000008787e96c        0x4 net/built-in.o
 .bss.dirfh     0x000000008787e970       0x20 net/built-in.o
 .bss.NfsSrvNfsPort
                0x000000008787e990        0x4 net/built-in.o
 .bss.rpc_id    0x000000008787e994        0x4 net/built-in.o
 .bss.fs_mounted
                0x000000008787e998        0x4 net/built-in.o
 .bss.nfs_path_buff
                0x000000008787e99c      0x800 net/built-in.o
 .bss.nfs_download_state
                0x000000008787f19c        0x4 net/built-in.o
 .bss.nfs_path  0x000000008787f1a0        0x4 net/built-in.o
 .bss.filefh    0x000000008787f1a4       0x20 net/built-in.o
 .bss.NfsState  0x000000008787f1c4        0x4 net/built-in.o
 .bss.default_filename
                0x000000008787f1c8       0x4d net/built-in.o
 *fill*         0x000000008787f215        0x3 
 .bss.NfsTimeoutCount
                0x000000008787f218        0x4 net/built-in.o
 .bss.NetPingIP
                0x000000008787f21c        0x4 net/built-in.o
                0x000000008787f21c                NetPingIP
 .bss.PingSeqNo
                0x000000008787f220        0x2 net/built-in.o
 *fill*         0x000000008787f222        0x2 
 .bss.time_start
                0x000000008787f224        0x4 net/built-in.o
 .bss.TftpTimeoutCount
                0x000000008787f228        0x4 net/built-in.o
 .bss.TftpBlockWrap
                0x000000008787f22c        0x4 net/built-in.o
 .bss.TftpBlock
                0x000000008787f230        0x4 net/built-in.o
 .bss.TftpOurPort
                0x000000008787f234        0x4 net/built-in.o
 .bss.TftpRemoteIP
                0x000000008787f238        0x4 net/built-in.o
 .bss.TftpState
                0x000000008787f23c        0x4 net/built-in.o
 .bss.TftpRemotePort
                0x000000008787f240        0x4 net/built-in.o
 .bss.tftp_filename
                0x000000008787f244       0x80 net/built-in.o
 .bss.TftpBlockWrapOffset
                0x000000008787f2c4        0x4 net/built-in.o
 .bss.TftpLastBlock
                0x000000008787f2c8        0x4 net/built-in.o
                0x000000008787f2cc                . = ALIGN (0x4)
                0x000000008787f2cc                __bss_limit = .

.bss_end        0x000000008787f2cc        0x0
 *(.__bss_end)
 .__bss_end     0x000000008787f2cc        0x0 arch/arm/lib/built-in.o
                0x000000008787f2cc                __bss_end

.dynsym         0x00000000878398e8       0x60
 *(.dynsym)
 .dynsym        0x00000000878398e8       0x60 arch/arm/cpu/armv7/start.o

.dynbss         0x0000000087839948        0x0
 *(.dynbss)
 .dynbss        0x0000000087839948        0x0 arch/arm/cpu/armv7/start.o

.dynstr         0x0000000087839948       0x2a
 *(.dynstr*)
 .dynstr        0x0000000087839948       0x2a arch/arm/cpu/armv7/start.o

.dynamic        0x0000000087839974       0x88
 *(.dynamic*)
 .dynamic       0x0000000087839974       0x88 arch/arm/cpu/armv7/start.o
                0x0000000087839974                _DYNAMIC

.plt            0x00000000878399fc        0x0
 *(.plt*)
 .plt           0x00000000878399fc        0x0 arch/arm/cpu/armv7/start.o

.interp         0x00000000878399fc       0x11
 *(.interp*)
 .interp        0x00000000878399fc       0x11 arch/arm/cpu/armv7/start.o

.gnu.hash
 *(.gnu.hash)

.gnu            0x0000000087839a10        0x0
 *(.gnu*)
 .gnu.version_d
                0x0000000087839a10        0x0 arch/arm/cpu/armv7/start.o
 .gnu.version   0x0000000087839a10        0x0 arch/arm/cpu/armv7/start.o
 .gnu.version_r
                0x0000000087839a10        0x0 arch/arm/cpu/armv7/start.o

.ARM.exidx
 *(.ARM.exidx*)

.gnu.linkonce.armexidx
 *(.gnu.linkonce.armexidx.*)
LOAD arch/arm/cpu/armv7/start.o
START GROUP
LOAD arch/arm/cpu/built-in.o
LOAD arch/arm/cpu/armv7/built-in.o
LOAD arch/arm/imx-common/built-in.o
LOAD arch/arm/lib/built-in.o
LOAD board/udoo/common/built-in.o
LOAD board/udoo/udoo_neo/built-in.o
LOAD common/built-in.o
LOAD disk/built-in.o
LOAD drivers/built-in.o
LOAD drivers/dma/built-in.o
LOAD drivers/gpio/built-in.o
LOAD drivers/i2c/built-in.o
LOAD drivers/mmc/built-in.o
LOAD drivers/mtd/built-in.o
LOAD drivers/mtd/onenand/built-in.o
LOAD drivers/mtd/spi/built-in.o
LOAD drivers/net/built-in.o
LOAD drivers/net/phy/built-in.o
LOAD drivers/pci/built-in.o
LOAD drivers/power/built-in.o
LOAD drivers/power/battery/built-in.o
LOAD drivers/power/fuel_gauge/built-in.o
LOAD drivers/power/mfd/built-in.o
LOAD drivers/power/pmic/built-in.o
LOAD drivers/serial/built-in.o
LOAD drivers/spi/built-in.o
LOAD drivers/usb/eth/built-in.o
LOAD drivers/usb/gadget/built-in.o
LOAD drivers/usb/host/built-in.o
LOAD drivers/usb/musb-new/built-in.o
LOAD drivers/usb/musb/built-in.o
LOAD drivers/usb/phy/built-in.o
LOAD drivers/usb/ulpi/built-in.o
LOAD fs/built-in.o
LOAD lib/built-in.o
LOAD net/built-in.o
LOAD test/built-in.o
LOAD test/dm/built-in.o
END GROUP
LOAD arch/arm/lib/eabi_compat.o
LOAD /usr/lib/gcc-cross/arm-linux-gnueabihf/5/libgcc.a
OUTPUT(u-boot elf32-littlearm)

.ARM.attributes
                0x0000000000000000       0x2b
 .ARM.attributes
                0x0000000000000000       0x1f arch/arm/cpu/armv7/start.o
 .ARM.attributes
                0x000000000000001f       0x2d arch/arm/cpu/armv7/built-in.o
 .ARM.attributes
                0x000000000000004c       0x2d arch/arm/imx-common/built-in.o
 .ARM.attributes
                0x0000000000000079       0x2b arch/arm/lib/built-in.o
 .ARM.attributes
                0x00000000000000a4       0x2d board/udoo/udoo_neo/built-in.o
 .ARM.attributes
                0x00000000000000d1       0x2d common/built-in.o
 .ARM.attributes
                0x00000000000000fe       0x2d disk/built-in.o
 .ARM.attributes
                0x000000000000012b       0x2d drivers/built-in.o
 .ARM.attributes
                0x0000000000000158       0x2d drivers/gpio/built-in.o
 .ARM.attributes
                0x0000000000000185       0x2d drivers/i2c/built-in.o
 .ARM.attributes
                0x00000000000001b2       0x2d drivers/mmc/built-in.o
 .ARM.attributes
                0x00000000000001df       0x2d drivers/mtd/spi/built-in.o
 .ARM.attributes
                0x000000000000020c       0x2d drivers/net/built-in.o
 .ARM.attributes
                0x0000000000000239       0x2d drivers/net/phy/built-in.o
 .ARM.attributes
                0x0000000000000266       0x2d drivers/power/built-in.o
 .ARM.attributes
                0x0000000000000293       0x2d drivers/power/pmic/built-in.o
 .ARM.attributes
                0x00000000000002c0       0x2d drivers/serial/built-in.o
 .ARM.attributes
                0x00000000000002ed       0x2d drivers/spi/built-in.o
 .ARM.attributes
                0x000000000000031a       0x2d drivers/usb/eth/built-in.o
 .ARM.attributes
                0x0000000000000347       0x2d drivers/usb/host/built-in.o
 .ARM.attributes
                0x0000000000000374       0x2d fs/built-in.o
 .ARM.attributes
                0x00000000000003a1       0x2d lib/built-in.o
 .ARM.attributes
                0x00000000000003ce       0x2d net/built-in.o
 .ARM.attributes
                0x00000000000003fb       0x2d test/dm/built-in.o
 .ARM.attributes
                0x0000000000000428       0x2d arch/arm/lib/eabi_compat.o
 .ARM.attributes
                0x0000000000000455       0x21 /usr/lib/gcc-cross/arm-linux-gnueabihf/5/libgcc.a(_udivsi3.o)
 .ARM.attributes
                0x0000000000000476       0x21 /usr/lib/gcc-cross/arm-linux-gnueabihf/5/libgcc.a(_divsi3.o)
 .ARM.attributes
                0x0000000000000497       0x21 /usr/lib/gcc-cross/arm-linux-gnueabihf/5/libgcc.a(_lshrdi3.o)
 .ARM.attributes
                0x00000000000004b8       0x21 /usr/lib/gcc-cross/arm-linux-gnueabihf/5/libgcc.a(_ashldi3.o)
 .ARM.attributes
                0x00000000000004d9       0x21 /usr/lib/gcc-cross/arm-linux-gnueabihf/5/libgcc.a(_dvmd_lnx.o)

.comment        0x0000000000000000       0x3b
 .comment       0x0000000000000000       0x3b arch/arm/cpu/armv7/built-in.o
                                        0x1a4 (size before relaxing)
 .comment       0x000000000000003b      0x1a4 arch/arm/imx-common/built-in.o
 .comment       0x000000000000003b      0x21c arch/arm/lib/built-in.o
 .comment       0x000000000000003b       0x78 board/udoo/udoo_neo/built-in.o
 .comment       0x000000000000003b     0x1068 common/built-in.o
 .comment       0x000000000000003b       0x78 disk/built-in.o
 .comment       0x000000000000003b      0x348 drivers/built-in.o
 .comment       0x000000000000003b       0x3c drivers/gpio/built-in.o
 .comment       0x000000000000003b       0x78 drivers/i2c/built-in.o
 .comment       0x000000000000003b       0xb4 drivers/mmc/built-in.o
 .comment       0x000000000000003b       0xf0 drivers/mtd/spi/built-in.o
 .comment       0x000000000000003b       0x3c drivers/net/built-in.o
 .comment       0x000000000000003b       0x78 drivers/net/phy/built-in.o
 .comment       0x000000000000003b       0x78 drivers/power/built-in.o
 .comment       0x000000000000003b       0x3c drivers/power/pmic/built-in.o
 .comment       0x000000000000003b       0x78 drivers/serial/built-in.o
 .comment       0x000000000000003b       0x78 drivers/spi/built-in.o
 .comment       0x000000000000003b       0x78 drivers/usb/eth/built-in.o
 .comment       0x000000000000003b       0x78 drivers/usb/host/built-in.o
 .comment       0x000000000000003b      0x168 fs/built-in.o
 .comment       0x000000000000003b      0x780 lib/built-in.o
 .comment       0x000000000000003b      0x1e0 net/built-in.o
 .comment       0x000000000000003b       0x3c test/dm/built-in.o
 .comment       0x000000000000003b       0x3c arch/arm/lib/eabi_compat.o

.note.GNU-stack
                0x0000000000000000        0x0
 .note.GNU-stack
                0x0000000000000000        0x0 arch/arm/cpu/armv7/built-in.o
 .note.GNU-stack
                0x0000000000000000        0x0 arch/arm/imx-common/built-in.o
 .note.GNU-stack
                0x0000000000000000        0x0 arch/arm/lib/built-in.o
 .note.GNU-stack
                0x0000000000000000        0x0 board/udoo/udoo_neo/built-in.o
 .note.GNU-stack
                0x0000000000000000        0x0 common/built-in.o
 .note.GNU-stack
                0x0000000000000000        0x0 disk/built-in.o
 .note.GNU-stack
                0x0000000000000000        0x0 drivers/built-in.o
 .note.GNU-stack
                0x0000000000000000        0x0 drivers/gpio/built-in.o
 .note.GNU-stack
                0x0000000000000000        0x0 drivers/i2c/built-in.o
 .note.GNU-stack
                0x0000000000000000        0x0 drivers/mmc/built-in.o
 .note.GNU-stack
                0x0000000000000000        0x0 drivers/mtd/spi/built-in.o
 .note.GNU-stack
                0x0000000000000000        0x0 drivers/net/built-in.o
 .note.GNU-stack
                0x0000000000000000        0x0 drivers/net/phy/built-in.o
 .note.GNU-stack
                0x0000000000000000        0x0 drivers/power/built-in.o
 .note.GNU-stack
                0x0000000000000000        0x0 drivers/power/pmic/built-in.o
 .note.GNU-stack
                0x0000000000000000        0x0 drivers/serial/built-in.o
 .note.GNU-stack
                0x0000000000000000        0x0 drivers/spi/built-in.o
 .note.GNU-stack
                0x0000000000000000        0x0 drivers/usb/eth/built-in.o
 .note.GNU-stack
                0x0000000000000000        0x0 drivers/usb/host/built-in.o
 .note.GNU-stack
                0x0000000000000000        0x0 fs/built-in.o
 .note.GNU-stack
                0x0000000000000000        0x0 lib/built-in.o
 .note.GNU-stack
                0x0000000000000000        0x0 net/built-in.o
 .note.GNU-stack
                0x0000000000000000        0x0 test/dm/built-in.o
 .note.GNU-stack
                0x0000000000000000        0x0 arch/arm/lib/eabi_compat.o
 .note.GNU-stack
                0x0000000000000000        0x0 /usr/lib/gcc-cross/arm-linux-gnueabihf/5/libgcc.a(_udivsi3.o)
 .note.GNU-stack
                0x0000000000000000        0x0 /usr/lib/gcc-cross/arm-linux-gnueabihf/5/libgcc.a(_divsi3.o)
 .note.GNU-stack
                0x0000000000000000        0x0 /usr/lib/gcc-cross/arm-linux-gnueabihf/5/libgcc.a(_lshrdi3.o)
 .note.GNU-stack
                0x0000000000000000        0x0 /usr/lib/gcc-cross/arm-linux-gnueabihf/5/libgcc.a(_ashldi3.o)
 .note.GNU-stack
                0x0000000000000000        0x0 /usr/lib/gcc-cross/arm-linux-gnueabihf/5/libgcc.a(_dvmd_lnx.o)

.debug_line     0x0000000000000000    0x1adf5
 .debug_line    0x0000000000000000       0x8b arch/arm/cpu/armv7/start.o
 .debug_line    0x000000000000008b     0x1181 arch/arm/cpu/armv7/built-in.o
 .debug_line    0x000000000000120c      0xb80 arch/arm/imx-common/built-in.o
 .debug_line    0x0000000000001d8c      0xdcb arch/arm/lib/built-in.o
 .debug_line    0x0000000000002b57      0x688 board/udoo/udoo_neo/built-in.o
 .debug_line    0x00000000000031df     0xaa8d common/built-in.o
 .debug_line    0x000000000000dc6c      0x561 disk/built-in.o
 .debug_line    0x000000000000e1cd     0x1922 drivers/built-in.o
 .debug_line    0x000000000000faef      0x183 drivers/gpio/built-in.o
 .debug_line    0x000000000000fc72      0x537 drivers/i2c/built-in.o
 .debug_line    0x00000000000101a9      0xddb drivers/mmc/built-in.o
 .debug_line    0x0000000000010f84      0x75f drivers/mtd/spi/built-in.o
 .debug_line    0x00000000000116e3      0x4f5 drivers/net/built-in.o
 .debug_line    0x0000000000011bd8      0x6ea drivers/net/phy/built-in.o
 .debug_line    0x00000000000122c2      0x37a drivers/power/built-in.o
 .debug_line    0x000000000001263c      0x113 drivers/power/pmic/built-in.o
 .debug_line    0x000000000001274f      0x52b drivers/serial/built-in.o
 .debug_line    0x0000000000012c7a      0x36e drivers/spi/built-in.o
 .debug_line    0x0000000000012fe8      0x525 drivers/usb/eth/built-in.o
 .debug_line    0x000000000001350d      0x89f drivers/usb/host/built-in.o
 .debug_line    0x0000000000013dac     0x1664 fs/built-in.o
 .debug_line    0x0000000000015410     0x3d14 lib/built-in.o
 .debug_line    0x0000000000019124     0x19d3 net/built-in.o
 .debug_line    0x000000000001aaf7      0x1eb test/dm/built-in.o
 .debug_line    0x000000000001ace2      0x113 arch/arm/lib/eabi_compat.o

.debug_info     0x0000000000000000    0xb12b6
 .debug_info    0x0000000000000000       0x6d arch/arm/cpu/armv7/start.o
 .debug_info    0x000000000000006d     0x8e67 arch/arm/cpu/armv7/built-in.o
 .debug_info    0x0000000000008ed4     0x46c0 arch/arm/imx-common/built-in.o
 .debug_info    0x000000000000d594     0x4f78 arch/arm/lib/built-in.o
 .debug_info    0x000000000001250c     0xcc32 board/udoo/udoo_neo/built-in.o
 .debug_info    0x000000000001f13e    0x44c7d common/built-in.o
 .debug_info    0x0000000000063dbb     0x20d0 disk/built-in.o
 .debug_info    0x0000000000065e8b     0xa771 drivers/built-in.o
 .debug_info    0x00000000000705fc      0x707 drivers/gpio/built-in.o
 .debug_info    0x0000000000070d03     0x2a67 drivers/i2c/built-in.o
 .debug_info    0x000000000007376a     0x512d drivers/mmc/built-in.o
 .debug_info    0x0000000000078897     0x2fc6 drivers/mtd/spi/built-in.o
 .debug_info    0x000000000007b85d     0x2fff drivers/net/built-in.o
 .debug_info    0x000000000007e85c     0x2e06 drivers/net/phy/built-in.o
 .debug_info    0x0000000000081662     0x18fb drivers/power/built-in.o
 .debug_info    0x0000000000082f5d      0x84e drivers/power/pmic/built-in.o
 .debug_info    0x00000000000837ab     0x1b3c drivers/serial/built-in.o
 .debug_info    0x00000000000852e7     0x1cab drivers/spi/built-in.o
 .debug_info    0x0000000000086f92     0x2975 drivers/usb/eth/built-in.o
 .debug_info    0x0000000000089907     0x3c5f drivers/usb/host/built-in.o
 .debug_info    0x000000000008d566     0x884f fs/built-in.o
 .debug_info    0x0000000000095db5    0x10381 lib/built-in.o
 .debug_info    0x00000000000a6136     0x9ef3 net/built-in.o
 .debug_info    0x00000000000b0029      0xdfc test/dm/built-in.o
 .debug_info    0x00000000000b0e25      0x491 arch/arm/lib/eabi_compat.o

.debug_abbrev   0x0000000000000000    0x1e084
 .debug_abbrev  0x0000000000000000       0x14 arch/arm/cpu/armv7/start.o
 .debug_abbrev  0x0000000000000014     0x1367 arch/arm/cpu/armv7/built-in.o
 .debug_abbrev  0x000000000000137b      0xf60 arch/arm/imx-common/built-in.o
 .debug_abbrev  0x00000000000022db     0x1215 arch/arm/lib/built-in.o
 .debug_abbrev  0x00000000000034f0      0x63b board/udoo/udoo_neo/built-in.o
 .debug_abbrev  0x0000000000003b2b     0xc0aa common/built-in.o
 .debug_abbrev  0x000000000000fbd5      0x69c disk/built-in.o
 .debug_abbrev  0x0000000000010271     0x20af drivers/built-in.o
 .debug_abbrev  0x0000000000012320      0x211 drivers/gpio/built-in.o
 .debug_abbrev  0x0000000000012531      0x82e drivers/i2c/built-in.o
 .debug_abbrev  0x0000000000012d5f      0xcbc drivers/mmc/built-in.o
 .debug_abbrev  0x0000000000013a1b      0x9e6 drivers/mtd/spi/built-in.o
 .debug_abbrev  0x0000000000014401      0x510 drivers/net/built-in.o
 .debug_abbrev  0x0000000000014911      0x758 drivers/net/phy/built-in.o
 .debug_abbrev  0x0000000000015069      0x574 drivers/power/built-in.o
 .debug_abbrev  0x00000000000155dd      0x1d3 drivers/power/pmic/built-in.o
 .debug_abbrev  0x00000000000157b0      0x641 drivers/serial/built-in.o
 .debug_abbrev  0x0000000000015df1      0x4d0 drivers/spi/built-in.o
 .debug_abbrev  0x00000000000162c1      0x6a1 drivers/usb/eth/built-in.o
 .debug_abbrev  0x0000000000016962      0x7f5 drivers/usb/host/built-in.o
 .debug_abbrev  0x0000000000017157     0x139c fs/built-in.o
 .debug_abbrev  0x00000000000184f3     0x3bc9 lib/built-in.o
 .debug_abbrev  0x000000000001c0bc     0x1b66 net/built-in.o
 .debug_abbrev  0x000000000001dc22      0x2c6 test/dm/built-in.o
 .debug_abbrev  0x000000000001dee8      0x19c arch/arm/lib/eabi_compat.o

.debug_aranges  0x0000000000000000     0x3c38
 .debug_aranges
                0x0000000000000000       0x20 arch/arm/cpu/armv7/start.o
 .debug_aranges
                0x0000000000000020      0x320 arch/arm/cpu/armv7/built-in.o
 .debug_aranges
                0x0000000000000340      0x188 arch/arm/imx-common/built-in.o
 .debug_aranges
                0x00000000000004c8      0x2a0 arch/arm/lib/built-in.o
 .debug_aranges
                0x0000000000000768       0xe8 board/udoo/udoo_neo/built-in.o
 .debug_aranges
                0x0000000000000850     0x16a0 common/built-in.o
 .debug_aranges
                0x0000000000001ef0       0xa0 disk/built-in.o
 .debug_aranges
                0x0000000000001f90      0x388 drivers/built-in.o
 .debug_aranges
                0x0000000000002318       0x48 drivers/gpio/built-in.o
 .debug_aranges
                0x0000000000002360      0x120 drivers/i2c/built-in.o
 .debug_aranges
                0x0000000000002480      0x190 drivers/mmc/built-in.o
 .debug_aranges
                0x0000000000002610       0xf8 drivers/mtd/spi/built-in.o
 .debug_aranges
                0x0000000000002708       0x80 drivers/net/built-in.o
 .debug_aranges
                0x0000000000002788      0x118 drivers/net/phy/built-in.o
 .debug_aranges
                0x00000000000028a0       0x78 drivers/power/built-in.o
 .debug_aranges
                0x0000000000002918       0x20 drivers/power/pmic/built-in.o
 .debug_aranges
                0x0000000000002938      0x110 drivers/serial/built-in.o
 .debug_aranges
                0x0000000000002a48       0x78 drivers/spi/built-in.o
 .debug_aranges
                0x0000000000002ac0       0xb0 drivers/usb/eth/built-in.o
 .debug_aranges
                0x0000000000002b70      0x100 drivers/usb/host/built-in.o
 .debug_aranges
                0x0000000000002c70      0x2c0 fs/built-in.o
 .debug_aranges
                0x0000000000002f30      0x928 lib/built-in.o
 .debug_aranges
                0x0000000000003858      0x370 net/built-in.o
 .debug_aranges
                0x0000000000003bc8       0x38 test/dm/built-in.o
 .debug_aranges
                0x0000000000003c00       0x38 arch/arm/lib/eabi_compat.o

.debug_frame    0x0000000000000000     0xa1ec
 .debug_frame   0x0000000000000000      0x728 arch/arm/cpu/armv7/built-in.o
 .debug_frame   0x0000000000000728      0x36c arch/arm/imx-common/built-in.o
 .debug_frame   0x0000000000000a94      0x464 arch/arm/lib/built-in.o
 .debug_frame   0x0000000000000ef8      0x248 board/udoo/udoo_neo/built-in.o
 .debug_frame   0x0000000000001140     0x3f08 common/built-in.o
 .debug_frame   0x0000000000005048      0x208 disk/built-in.o
 .debug_frame   0x0000000000005250      0x840 drivers/built-in.o
 .debug_frame   0x0000000000005a90       0x80 drivers/gpio/built-in.o
 .debug_frame   0x0000000000005b10      0x33c drivers/i2c/built-in.o
 .debug_frame   0x0000000000005e4c      0x520 drivers/mmc/built-in.o
 .debug_frame   0x000000000000636c      0x2b0 drivers/mtd/spi/built-in.o
 .debug_frame   0x000000000000661c      0x190 drivers/net/built-in.o
 .debug_frame   0x00000000000067ac      0x350 drivers/net/phy/built-in.o
 .debug_frame   0x0000000000006afc      0x120 drivers/power/built-in.o
 .debug_frame   0x0000000000006c1c       0x28 drivers/power/pmic/built-in.o
 .debug_frame   0x0000000000006c44      0x294 drivers/serial/built-in.o
 .debug_frame   0x0000000000006ed8      0x10c drivers/spi/built-in.o
 .debug_frame   0x0000000000006fe4      0x228 drivers/usb/eth/built-in.o
 .debug_frame   0x000000000000720c      0x2e4 drivers/usb/host/built-in.o
 .debug_frame   0x00000000000074f0      0x8c8 fs/built-in.o
 .debug_frame   0x0000000000007db8     0x1880 lib/built-in.o
 .debug_frame   0x0000000000009638      0xab0 net/built-in.o
 .debug_frame   0x000000000000a0e8       0x9c test/dm/built-in.o
 .debug_frame   0x000000000000a184       0x68 arch/arm/lib/eabi_compat.o

.debug_str      0x0000000000000000    0x1d451
 .debug_str     0x0000000000000000     0x25b7 arch/arm/cpu/armv7/built-in.o
                                       0x5270 (size before relaxing)
 .debug_str     0x00000000000025b7      0x5e1 arch/arm/imx-common/built-in.o
                                       0x378f (size before relaxing)
 .debug_str     0x0000000000002b98     0x11f7 arch/arm/lib/built-in.o
                                       0x4145 (size before relaxing)
 .debug_str     0x0000000000003d8f     0xd00c board/udoo/udoo_neo/built-in.o
                                      0x1aa33 (size before relaxing)
 .debug_str     0x0000000000010d9b     0x5faf common/built-in.o
                                      0x273e7 (size before relaxing)
 .debug_str     0x0000000000016d4a      0x265 disk/built-in.o
                                        0xedf (size before relaxing)
 .debug_str     0x0000000000016faf      0xaee drivers/built-in.o
                                       0x6d3d (size before relaxing)
 .debug_str     0x0000000000017a9d       0x87 drivers/gpio/built-in.o
                                        0x4dd (size before relaxing)
 .debug_str     0x0000000000017b24      0x281 drivers/i2c/built-in.o
                                       0x10da (size before relaxing)
 .debug_str     0x0000000000017da5      0x51f drivers/mmc/built-in.o
                                       0x1f3e (size before relaxing)
 .debug_str     0x00000000000182c4      0x488 drivers/mtd/spi/built-in.o
                                       0x1da7 (size before relaxing)
 .debug_str     0x000000000001874c      0x732 drivers/net/built-in.o
                                       0x10fd (size before relaxing)
 .debug_str     0x0000000000018e7e      0x309 drivers/net/phy/built-in.o
                                       0x115d (size before relaxing)
 .debug_str     0x0000000000019187      0x118 drivers/power/built-in.o
                                        0xcb1 (size before relaxing)
 .debug_str     0x000000000001929f       0x40 drivers/power/pmic/built-in.o
                                        0x924 (size before relaxing)
 .debug_str     0x00000000000192df      0x1f4 drivers/serial/built-in.o
                                       0x11fd (size before relaxing)
 .debug_str     0x00000000000194d3      0x1fa drivers/spi/built-in.o
                                        0xb4f (size before relaxing)
 .debug_str     0x00000000000196cd      0x318 drivers/usb/eth/built-in.o
                                       0x1492 (size before relaxing)
 .debug_str     0x00000000000199e5      0x652 drivers/usb/host/built-in.o
                                       0x2070 (size before relaxing)
 .debug_str     0x000000000001a037      0xfe0 fs/built-in.o
                                       0x3c40 (size before relaxing)
 .debug_str     0x000000000001b017     0x1213 lib/built-in.o
                                       0x9021 (size before relaxing)
 .debug_str     0x000000000001c22a     0x1061 net/built-in.o
                                       0x5ec4 (size before relaxing)
 .debug_str     0x000000000001d28b      0x169 test/dm/built-in.o
                                        0x9b8 (size before relaxing)
 .debug_str     0x000000000001d3f4       0x5d arch/arm/lib/eabi_compat.o
                                        0x45f (size before relaxing)

.debug_loc      0x0000000000000000    0x51017
 .debug_loc     0x0000000000000000     0x31c0 arch/arm/cpu/armv7/built-in.o
 .debug_loc     0x00000000000031c0      0xede arch/arm/imx-common/built-in.o
 .debug_loc     0x000000000000409e      0xaa8 arch/arm/lib/built-in.o
 .debug_loc     0x0000000000004b46      0x7a5 board/udoo/udoo_neo/built-in.o
 .debug_loc     0x00000000000052eb    0x21180 common/built-in.o
 .debug_loc     0x000000000002646b     0x11d8 disk/built-in.o
 .debug_loc     0x0000000000027643     0x3faf drivers/built-in.o
 .debug_loc     0x000000000002b5f2      0x51d drivers/gpio/built-in.o
 .debug_loc     0x000000000002bb0f     0x130a drivers/i2c/built-in.o
 .debug_loc     0x000000000002ce19     0x27a0 drivers/mmc/built-in.o
 .debug_loc     0x000000000002f5b9     0x1297 drivers/mtd/spi/built-in.o
 .debug_loc     0x0000000000030850     0x1686 drivers/net/built-in.o
 .debug_loc     0x0000000000031ed6     0x1c9b drivers/net/phy/built-in.o
 .debug_loc     0x0000000000033b71      0x714 drivers/power/built-in.o
 .debug_loc     0x0000000000034285       0x3f drivers/power/pmic/built-in.o
 .debug_loc     0x00000000000342c4      0x5a5 drivers/serial/built-in.o
 .debug_loc     0x0000000000034869     0x1398 drivers/spi/built-in.o
 .debug_loc     0x0000000000035c01      0xb6b drivers/usb/eth/built-in.o
 .debug_loc     0x000000000003676c     0x1eef drivers/usb/host/built-in.o
 .debug_loc     0x000000000003865b     0x595c fs/built-in.o
 .debug_loc     0x000000000003dfb7     0xe297 lib/built-in.o
 .debug_loc     0x000000000004c24e     0x487c net/built-in.o
 .debug_loc     0x0000000000050aca      0x445 test/dm/built-in.o
 .debug_loc     0x0000000000050f0f      0x108 arch/arm/lib/eabi_compat.o

.debug_ranges   0x0000000000000000     0x6848
 .debug_ranges  0x0000000000000000      0x610 arch/arm/cpu/armv7/built-in.o
 .debug_ranges  0x0000000000000610      0x288 arch/arm/imx-common/built-in.o
 .debug_ranges  0x0000000000000898      0x228 arch/arm/lib/built-in.o
 .debug_ranges  0x0000000000000ac0       0xe0 board/udoo/udoo_neo/built-in.o
 .debug_ranges  0x0000000000000ba0     0x23d0 common/built-in.o
 .debug_ranges  0x0000000000002f70      0x108 disk/built-in.o
 .debug_ranges  0x0000000000003078      0x6b0 drivers/built-in.o
 .debug_ranges  0x0000000000003728       0x68 drivers/gpio/built-in.o
 .debug_ranges  0x0000000000003790      0x208 drivers/i2c/built-in.o
 .debug_ranges  0x0000000000003998      0x370 drivers/mmc/built-in.o
 .debug_ranges  0x0000000000003d08      0x1d8 drivers/mtd/spi/built-in.o
 .debug_ranges  0x0000000000003ee0      0x3c0 drivers/net/built-in.o
 .debug_ranges  0x00000000000042a0      0x3a0 drivers/net/phy/built-in.o
 .debug_ranges  0x0000000000004640       0xb8 drivers/power/built-in.o
 .debug_ranges  0x00000000000046f8       0x10 drivers/power/pmic/built-in.o
 .debug_ranges  0x0000000000004708      0x110 drivers/serial/built-in.o
 .debug_ranges  0x0000000000004818      0x160 drivers/spi/built-in.o
 .debug_ranges  0x0000000000004978      0x1b0 drivers/usb/eth/built-in.o
 .debug_ranges  0x0000000000004b28      0x1c0 drivers/usb/host/built-in.o
 .debug_ranges  0x0000000000004ce8      0x610 fs/built-in.o
 .debug_ranges  0x00000000000052f8      0xd78 lib/built-in.o
 .debug_ranges  0x0000000000006070      0x768 net/built-in.o
 .debug_ranges  0x00000000000067d8       0x48 test/dm/built-in.o
 .debug_ranges  0x0000000000006820       0x28 arch/arm/lib/eabi_compat.o
